# SymbolsHelper-Confirmed: 6.6.0 amd64
libQt6ProtobufWellKnownTypes.so.6 libqt6protobufwellknowntypes6 #MINVER#
* Build-Depends-Package: qt6-grpc-dev
 Qt_6@Qt_6 6.6.0
 Qt_6_PRIVATE_API@Qt_6_PRIVATE_API 6.6.0
 _ZGVZN9QMetaType21registerConverterImplI5QListIN10QtProtobuf3AnyEE9QIterableI13QMetaSequenceEEEbSt8functionIFbPKvPvEES_S_E10unregister@Qt_6 6.6.0
 _ZGVZN9QMetaType21registerConverterImplI5QListIN6google8protobuf3AnyEE9QIterableI13QMetaSequenceEEEbSt8functionIFbPKvPvEES_S_E10unregister@Qt_6 6.6.0
 _ZGVZN9QMetaType23registerMutableViewImplI5QListIN10QtProtobuf3AnyEE9QIterableI13QMetaSequenceEEEbSt8functionIFbPvS9_EES_S_E10unregister@Qt_6 6.6.0
 _ZGVZN9QMetaType23registerMutableViewImplI5QListIN6google8protobuf3AnyEE9QIterableI13QMetaSequenceEEEbSt8functionIFbPvSA_EES_S_E10unregister@Qt_6 6.6.0
 _ZN10QtProtobuf3Any10setTypeUrlERK7QString@Qt_6 6.6.0
 _ZN10QtProtobuf3Any13registerTypesEv@Qt_6 6.6.0
 _ZN10QtProtobuf3Any15fromMessageImplEPK16QProtobufMessageN17QtProtobufPrivate25QProtobufPropertyOrderingE14QAnyStringView@Qt_6 6.6.0
 _ZN10QtProtobuf3Any16defaultUrlPrefixEv@Qt_6 6.6.0
 _ZN10QtProtobuf3Any16staticMetaObjectE@Qt_6 6.6.0
 _ZN10QtProtobuf3Any18fromAnyMessageImplEPKS0_14QAnyStringView@Qt_6 6.6.0
 _ZN10QtProtobuf3Any8setValueERK10QByteArray@Qt_6 6.6.0
 _ZN10QtProtobuf3AnyC1ERKS0_@Qt_6 6.6.0
 _ZN10QtProtobuf3AnyC1Ev@Qt_6 6.6.0
 _ZN10QtProtobuf3AnyC2ERKS0_@Qt_6 6.6.0
 _ZN10QtProtobuf3AnyC2Ev@Qt_6 6.6.0
 _ZN10QtProtobuf3AnyD1Ev@Qt_6 6.6.0
 _ZN10QtProtobuf3AnyD2Ev@Qt_6 6.6.0
 _ZN10QtProtobuf3AnyaSERKS0_@Qt_6 6.6.0
 _ZN13QMetaSequence12MetaSequenceI5QListIN10QtProtobuf3AnyEEE5valueE@Qt_6 6.6.0
 _ZN13QMetaSequence12MetaSequenceI5QListIN6google8protobuf3AnyEEE5valueE@Qt_6 6.6.0
 _ZN6google8protobuf3Any10setTypeUrlERK7QString@Qt_6 6.6.0
 _ZN6google8protobuf3Any13registerTypesEv@Qt_6 6.6.0
 _ZN6google8protobuf3Any16propertyOrderingE@Qt_6 6.6.0
 _ZN6google8protobuf3Any16staticMetaObjectE@Qt_6 6.6.0
 _ZN6google8protobuf3Any8setValueERK10QByteArray@Qt_6 6.6.0
 _ZN6google8protobuf3AnyC1EOS1_@Qt_6 6.6.0
 _ZN6google8protobuf3AnyC1ERKS1_@Qt_6 6.6.0
 _ZN6google8protobuf3AnyC1Ev@Qt_6 6.6.0
 _ZN6google8protobuf3AnyC2EOS1_@Qt_6 6.6.0
 _ZN6google8protobuf3AnyC2ERKS1_@Qt_6 6.6.0
 _ZN6google8protobuf3AnyC2Ev@Qt_6 6.6.0
 _ZN6google8protobuf3AnyD1Ev@Qt_6 6.6.0
 _ZN6google8protobuf3AnyD2Ev@Qt_6 6.6.0
 _ZN6google8protobuf3AnyaSEOS1_@Qt_6 6.6.0
 _ZN6google8protobuf3AnyaSERKS1_@Qt_6 6.6.0
 _ZNK10QtProtobuf3Any5valueEv@Qt_6 6.6.0
 _ZNK10QtProtobuf3Any6asImplEP16QProtobufMessageN17QtProtobufPrivate25QProtobufPropertyOrderingE@Qt_6 6.6.0
 _ZNK10QtProtobuf3Any6equalsERKS0_@Qt_6 6.6.0
 _ZNK10QtProtobuf3Any7typeUrlEv@Qt_6 6.6.0
 _ZNK10QtProtobuf3Any9asAnyImplEv@Qt_6 6.6.0
 _ZNK6google8protobuf3Any5valueEv@Qt_6 6.6.0
 _ZNK6google8protobuf3Any7typeUrlEv@Qt_6 6.6.0
 _ZNK6google8protobuf3AnyeqERKS1_@Qt_6 6.6.0
 _ZNK6google8protobuf3AnyneERKS1_@Qt_6 6.6.0
 _ZTIZN9QMetaType17registerConverterI5QListIN10QtProtobuf3AnyEE9QIterableI13QMetaSequenceEN9QtPrivate33QSequentialIterableConvertFunctorIS4_EEEEbT1_EUlPKvPvE_@Qt_6 6.6.0
 _ZTIZN9QMetaType17registerConverterI5QListIN6google8protobuf3AnyEE9QIterableI13QMetaSequenceEN9QtPrivate33QSequentialIterableConvertFunctorIS5_EEEEbT1_EUlPKvPvE_@Qt_6 6.6.0
 _ZTIZN9QMetaType19registerMutableViewI5QListIN10QtProtobuf3AnyEE9QIterableI13QMetaSequenceEN9QtPrivate37QSequentialIterableMutableViewFunctorIS4_EEEEbT1_EUlPvSC_E_@Qt_6 6.6.0
 _ZTIZN9QMetaType19registerMutableViewI5QListIN6google8protobuf3AnyEE9QIterableI13QMetaSequenceEN9QtPrivate37QSequentialIterableMutableViewFunctorIS5_EEEEbT1_EUlPvSD_E_@Qt_6 6.6.0
 _ZTSZN9QMetaType17registerConverterI5QListIN10QtProtobuf3AnyEE9QIterableI13QMetaSequenceEN9QtPrivate33QSequentialIterableConvertFunctorIS4_EEEEbT1_EUlPKvPvE_@Qt_6 6.6.0
 _ZTSZN9QMetaType17registerConverterI5QListIN6google8protobuf3AnyEE9QIterableI13QMetaSequenceEN9QtPrivate33QSequentialIterableConvertFunctorIS5_EEEEbT1_EUlPKvPvE_@Qt_6 6.6.0
 _ZTSZN9QMetaType19registerMutableViewI5QListIN10QtProtobuf3AnyEE9QIterableI13QMetaSequenceEN9QtPrivate37QSequentialIterableMutableViewFunctorIS4_EEEEbT1_EUlPvSC_E_@Qt_6 6.6.0
 _ZTSZN9QMetaType19registerMutableViewI5QListIN6google8protobuf3AnyEE9QIterableI13QMetaSequenceEN9QtPrivate37QSequentialIterableMutableViewFunctorIS5_EEEEbT1_EUlPvSD_E_@Qt_6 6.6.0
 (optional=templinst)_ZZN9QMetaType21registerConverterImplI5QListIN10QtProtobuf3AnyEE9QIterableI13QMetaSequenceEEEbSt8functionIFbPKvPvEES_S_E10unregister@Qt_6 6.6.0
 (optional=templinst)_ZZN9QMetaType21registerConverterImplI5QListIN6google8protobuf3AnyEE9QIterableI13QMetaSequenceEEEbSt8functionIFbPKvPvEES_S_E10unregister@Qt_6 6.6.0
 (optional=templinst)_ZZN9QMetaType23registerMutableViewImplI5QListIN10QtProtobuf3AnyEE9QIterableI13QMetaSequenceEEEbSt8functionIFbPvS9_EES_S_E10unregister@Qt_6 6.6.0
 (optional=templinst)_ZZN9QMetaType23registerMutableViewImplI5QListIN6google8protobuf3AnyEE9QIterableI13QMetaSequenceEEEbSt8functionIFbPvSA_EES_S_E10unregister@Qt_6 6.6.0
