# SymbolsHelper-Confirmed: 6.6.1 armel armhf i386 powerpc
libQt6ProtobufQtCoreTypes.so.6 libqt6protobufqtcoretypes6 #MINVER#
* Build-Depends-Package: qt6-grpc-dev
 Qt_6@Qt_6 6.6.0
 Qt_6_PRIVATE_API@Qt_6_PRIVATE_API 6.6.0
 _ZGVZN9QMetaType21registerConverterImplI5QListIN10QtProtobuf18TransparentWrapperIiNS2_7int_tagEEEE9QIterableI13QMetaSequenceEEEbSt8functionIFbPKvPvEES_S_E10unregister@Qt_6 6.6.0
 _ZGVZN9QMetaType21registerConverterImplI5QListIN17QtProtobufPrivate6QtCore14QVersionNumberEE9QIterableI13QMetaSequenceEEEbSt8functionIFbPKvPvEES_S_E10unregister@Qt_6 6.6.0
 _ZGVZN9QMetaType21registerConverterImplI5QListIN17QtProtobufPrivate6QtCore4QUrlEE9QIterableI13QMetaSequenceEEEbSt8functionIFbPKvPvEES_S_E10unregister@Qt_6 6.6.0
 _ZGVZN9QMetaType21registerConverterImplI5QListIN17QtProtobufPrivate6QtCore5QCharEE9QIterableI13QMetaSequenceEEEbSt8functionIFbPKvPvEES_S_E10unregister@Qt_6 6.6.0
 _ZGVZN9QMetaType21registerConverterImplI5QListIN17QtProtobufPrivate6QtCore5QDateEE9QIterableI13QMetaSequenceEEEbSt8functionIFbPKvPvEES_S_E10unregister@Qt_6 6.6.0
 _ZGVZN9QMetaType21registerConverterImplI5QListIN17QtProtobufPrivate6QtCore5QRectEE9QIterableI13QMetaSequenceEEEbSt8functionIFbPKvPvEES_S_E10unregister@Qt_6 6.6.0
 _ZGVZN9QMetaType21registerConverterImplI5QListIN17QtProtobufPrivate6QtCore5QSizeEE9QIterableI13QMetaSequenceEEEbSt8functionIFbPKvPvEES_S_E10unregister@Qt_6 6.6.0
 _ZGVZN9QMetaType21registerConverterImplI5QListIN17QtProtobufPrivate6QtCore5QTimeEE9QIterableI13QMetaSequenceEEEbSt8functionIFbPKvPvEES_S_E10unregister@Qt_6 6.6.0
 _ZGVZN9QMetaType21registerConverterImplI5QListIN17QtProtobufPrivate6QtCore5QUuidEE9QIterableI13QMetaSequenceEEEbSt8functionIFbPKvPvEES_S_E10unregister@Qt_6 6.6.0
 _ZGVZN9QMetaType21registerConverterImplI5QListIN17QtProtobufPrivate6QtCore6QPointEE9QIterableI13QMetaSequenceEEEbSt8functionIFbPKvPvEES_S_E10unregister@Qt_6 6.6.0
 _ZGVZN9QMetaType21registerConverterImplI5QListIN17QtProtobufPrivate6QtCore6QRectFEE9QIterableI13QMetaSequenceEEEbSt8functionIFbPKvPvEES_S_E10unregister@Qt_6 6.6.0
 _ZGVZN9QMetaType21registerConverterImplI5QListIN17QtProtobufPrivate6QtCore6QSizeFEE9QIterableI13QMetaSequenceEEEbSt8functionIFbPKvPvEES_S_E10unregister@Qt_6 6.6.0
 _ZGVZN9QMetaType21registerConverterImplI5QListIN17QtProtobufPrivate6QtCore7QPointFEE9QIterableI13QMetaSequenceEEEbSt8functionIFbPKvPvEES_S_E10unregister@Qt_6 6.6.0
 _ZGVZN9QMetaType21registerConverterImplI5QListIN17QtProtobufPrivate6QtCore9QDateTimeEE9QIterableI13QMetaSequenceEEEbSt8functionIFbPKvPvEES_S_E10unregister@Qt_6 6.6.0
 _ZGVZN9QMetaType21registerConverterImplI5QListIN17QtProtobufPrivate6QtCore9QTimeZone8TimeSpecEE9QIterableI13QMetaSequenceEEEbSt8functionIFbPKvPvEES_S_E10unregister@Qt_6 6.6.0
 _ZGVZN9QMetaType21registerConverterImplI5QListIN17QtProtobufPrivate6QtCore9QTimeZoneEE9QIterableI13QMetaSequenceEEEbSt8functionIFbPKvPvEES_S_E10unregister@Qt_6 6.6.0
 _ZGVZN9QMetaType23registerMutableViewImplI5QListIN10QtProtobuf18TransparentWrapperIiNS2_7int_tagEEEE9QIterableI13QMetaSequenceEEEbSt8functionIFbPvSB_EES_S_E10unregister@Qt_6 6.6.0
 _ZGVZN9QMetaType23registerMutableViewImplI5QListIN17QtProtobufPrivate6QtCore14QVersionNumberEE9QIterableI13QMetaSequenceEEEbSt8functionIFbPvSA_EES_S_E10unregister@Qt_6 6.6.0
 _ZGVZN9QMetaType23registerMutableViewImplI5QListIN17QtProtobufPrivate6QtCore4QUrlEE9QIterableI13QMetaSequenceEEEbSt8functionIFbPvSA_EES_S_E10unregister@Qt_6 6.6.0
 _ZGVZN9QMetaType23registerMutableViewImplI5QListIN17QtProtobufPrivate6QtCore5QCharEE9QIterableI13QMetaSequenceEEEbSt8functionIFbPvSA_EES_S_E10unregister@Qt_6 6.6.0
 _ZGVZN9QMetaType23registerMutableViewImplI5QListIN17QtProtobufPrivate6QtCore5QDateEE9QIterableI13QMetaSequenceEEEbSt8functionIFbPvSA_EES_S_E10unregister@Qt_6 6.6.0
 _ZGVZN9QMetaType23registerMutableViewImplI5QListIN17QtProtobufPrivate6QtCore5QRectEE9QIterableI13QMetaSequenceEEEbSt8functionIFbPvSA_EES_S_E10unregister@Qt_6 6.6.0
 _ZGVZN9QMetaType23registerMutableViewImplI5QListIN17QtProtobufPrivate6QtCore5QSizeEE9QIterableI13QMetaSequenceEEEbSt8functionIFbPvSA_EES_S_E10unregister@Qt_6 6.6.0
 _ZGVZN9QMetaType23registerMutableViewImplI5QListIN17QtProtobufPrivate6QtCore5QTimeEE9QIterableI13QMetaSequenceEEEbSt8functionIFbPvSA_EES_S_E10unregister@Qt_6 6.6.0
 _ZGVZN9QMetaType23registerMutableViewImplI5QListIN17QtProtobufPrivate6QtCore5QUuidEE9QIterableI13QMetaSequenceEEEbSt8functionIFbPvSA_EES_S_E10unregister@Qt_6 6.6.0
 _ZGVZN9QMetaType23registerMutableViewImplI5QListIN17QtProtobufPrivate6QtCore6QPointEE9QIterableI13QMetaSequenceEEEbSt8functionIFbPvSA_EES_S_E10unregister@Qt_6 6.6.0
 _ZGVZN9QMetaType23registerMutableViewImplI5QListIN17QtProtobufPrivate6QtCore6QRectFEE9QIterableI13QMetaSequenceEEEbSt8functionIFbPvSA_EES_S_E10unregister@Qt_6 6.6.0
 _ZGVZN9QMetaType23registerMutableViewImplI5QListIN17QtProtobufPrivate6QtCore6QSizeFEE9QIterableI13QMetaSequenceEEEbSt8functionIFbPvSA_EES_S_E10unregister@Qt_6 6.6.0
 _ZGVZN9QMetaType23registerMutableViewImplI5QListIN17QtProtobufPrivate6QtCore7QPointFEE9QIterableI13QMetaSequenceEEEbSt8functionIFbPvSA_EES_S_E10unregister@Qt_6 6.6.0
 _ZGVZN9QMetaType23registerMutableViewImplI5QListIN17QtProtobufPrivate6QtCore9QDateTimeEE9QIterableI13QMetaSequenceEEEbSt8functionIFbPvSA_EES_S_E10unregister@Qt_6 6.6.0
 _ZGVZN9QMetaType23registerMutableViewImplI5QListIN17QtProtobufPrivate6QtCore9QTimeZone8TimeSpecEE9QIterableI13QMetaSequenceEEEbSt8functionIFbPvSB_EES_S_E10unregister@Qt_6 6.6.0
 _ZGVZN9QMetaType23registerMutableViewImplI5QListIN17QtProtobufPrivate6QtCore9QTimeZoneEE9QIterableI13QMetaSequenceEEEbSt8functionIFbPvSA_EES_S_E10unregister@Qt_6 6.6.0
 _ZN10QtProtobuf28qRegisterProtobufQtCoreTypesEv@Qt_6 6.6.0
 _ZN13QMetaSequence12MetaSequenceI5QListIN10QtProtobuf18TransparentWrapperIiNS2_7int_tagEEEEE5valueE@Qt_6 6.6.0
 _ZN13QMetaSequence12MetaSequenceI5QListIN17QtProtobufPrivate6QtCore14QVersionNumberEEE5valueE@Qt_6 6.6.0
 _ZN13QMetaSequence12MetaSequenceI5QListIN17QtProtobufPrivate6QtCore4QUrlEEE5valueE@Qt_6 6.6.0
 _ZN13QMetaSequence12MetaSequenceI5QListIN17QtProtobufPrivate6QtCore5QCharEEE5valueE@Qt_6 6.6.0
 _ZN13QMetaSequence12MetaSequenceI5QListIN17QtProtobufPrivate6QtCore5QDateEEE5valueE@Qt_6 6.6.0
 _ZN13QMetaSequence12MetaSequenceI5QListIN17QtProtobufPrivate6QtCore5QRectEEE5valueE@Qt_6 6.6.0
 _ZN13QMetaSequence12MetaSequenceI5QListIN17QtProtobufPrivate6QtCore5QSizeEEE5valueE@Qt_6 6.6.0
 _ZN13QMetaSequence12MetaSequenceI5QListIN17QtProtobufPrivate6QtCore5QTimeEEE5valueE@Qt_6 6.6.0
 _ZN13QMetaSequence12MetaSequenceI5QListIN17QtProtobufPrivate6QtCore5QUuidEEE5valueE@Qt_6 6.6.0
 _ZN13QMetaSequence12MetaSequenceI5QListIN17QtProtobufPrivate6QtCore6QPointEEE5valueE@Qt_6 6.6.0
 _ZN13QMetaSequence12MetaSequenceI5QListIN17QtProtobufPrivate6QtCore6QRectFEEE5valueE@Qt_6 6.6.0
 _ZN13QMetaSequence12MetaSequenceI5QListIN17QtProtobufPrivate6QtCore6QSizeFEEE5valueE@Qt_6 6.6.0
 _ZN13QMetaSequence12MetaSequenceI5QListIN17QtProtobufPrivate6QtCore7QPointFEEE5valueE@Qt_6 6.6.0
 _ZN13QMetaSequence12MetaSequenceI5QListIN17QtProtobufPrivate6QtCore9QDateTimeEEE5valueE@Qt_6 6.6.0
 _ZN13QMetaSequence12MetaSequenceI5QListIN17QtProtobufPrivate6QtCore9QTimeZone8TimeSpecEEE5valueE@Qt_6 6.6.0
 _ZN13QMetaSequence12MetaSequenceI5QListIN17QtProtobufPrivate6QtCore9QTimeZoneEEE5valueE@Qt_6 6.6.0
 _ZN17QtProtobufPrivate23warnTypeConversionErrorEv@Qt_6 6.6.0
 _ZN17QtProtobufPrivate6QtCore14QVersionNumber11setSegmentsERK5QListIN10QtProtobuf18TransparentWrapperIiNS3_7int_tagEEEE@Qt_6 6.6.0
 _ZN17QtProtobufPrivate6QtCore14QVersionNumber13registerTypesEv@Qt_6 6.6.0
 _ZN17QtProtobufPrivate6QtCore14QVersionNumber16propertyOrderingE@Qt_6 6.6.0
 _ZN17QtProtobufPrivate6QtCore14QVersionNumber16staticMetaObjectE@Qt_6 6.6.0
 _ZN17QtProtobufPrivate6QtCore14QVersionNumber8segmentsEv@Qt_6 6.6.0
 _ZN17QtProtobufPrivate6QtCore14QVersionNumberC1EOS1_@Qt_6 6.6.0
 _ZN17QtProtobufPrivate6QtCore14QVersionNumberC1ERKS1_@Qt_6 6.6.0
 _ZN17QtProtobufPrivate6QtCore14QVersionNumberC1Ev@Qt_6 6.6.0
 _ZN17QtProtobufPrivate6QtCore14QVersionNumberC2EOS1_@Qt_6 6.6.0
 _ZN17QtProtobufPrivate6QtCore14QVersionNumberC2ERKS1_@Qt_6 6.6.0
 _ZN17QtProtobufPrivate6QtCore14QVersionNumberC2Ev@Qt_6 6.6.0
 _ZN17QtProtobufPrivate6QtCore14QVersionNumberD1Ev@Qt_6 6.6.0
 _ZN17QtProtobufPrivate6QtCore14QVersionNumberD2Ev@Qt_6 6.6.0
 _ZN17QtProtobufPrivate6QtCore14QVersionNumberaSEOS1_@Qt_6 6.6.0
 _ZN17QtProtobufPrivate6QtCore14QVersionNumberaSERKS1_@Qt_6 6.6.0
 _ZN17QtProtobufPrivate6QtCore4QUrl13registerTypesEv@Qt_6 6.6.0
 _ZN17QtProtobufPrivate6QtCore4QUrl16propertyOrderingE@Qt_6 6.6.0
 _ZN17QtProtobufPrivate6QtCore4QUrl16staticMetaObjectE@Qt_6 6.6.0
 _ZN17QtProtobufPrivate6QtCore4QUrl6setUrlERK7QString@Qt_6 6.6.0
 _ZN17QtProtobufPrivate6QtCore4QUrlC1EOS1_@Qt_6 6.6.0
 _ZN17QtProtobufPrivate6QtCore4QUrlC1ERKS1_@Qt_6 6.6.0
 _ZN17QtProtobufPrivate6QtCore4QUrlC1Ev@Qt_6 6.6.0
 _ZN17QtProtobufPrivate6QtCore4QUrlC2EOS1_@Qt_6 6.6.0
 _ZN17QtProtobufPrivate6QtCore4QUrlC2ERKS1_@Qt_6 6.6.0
 _ZN17QtProtobufPrivate6QtCore4QUrlC2Ev@Qt_6 6.6.0
 _ZN17QtProtobufPrivate6QtCore4QUrlD1Ev@Qt_6 6.6.0
 _ZN17QtProtobufPrivate6QtCore4QUrlD2Ev@Qt_6 6.6.0
 _ZN17QtProtobufPrivate6QtCore4QUrlaSEOS1_@Qt_6 6.6.0
 _ZN17QtProtobufPrivate6QtCore4QUrlaSERKS1_@Qt_6 6.6.0
 _ZN17QtProtobufPrivate6QtCore5QChar13registerTypesEv@Qt_6 6.6.0
 _ZN17QtProtobufPrivate6QtCore5QChar16propertyOrderingE@Qt_6 6.6.0
 _ZN17QtProtobufPrivate6QtCore5QChar16staticMetaObjectE@Qt_6 6.6.0
 _ZN17QtProtobufPrivate6QtCore5QChar17setUtf16CodePointERKj@Qt_6 6.6.0
 _ZN17QtProtobufPrivate6QtCore5QCharC1EOS1_@Qt_6 6.6.0
 _ZN17QtProtobufPrivate6QtCore5QCharC1ERKS1_@Qt_6 6.6.0
 _ZN17QtProtobufPrivate6QtCore5QCharC1Ev@Qt_6 6.6.0
 _ZN17QtProtobufPrivate6QtCore5QCharC2EOS1_@Qt_6 6.6.0
 _ZN17QtProtobufPrivate6QtCore5QCharC2ERKS1_@Qt_6 6.6.0
 _ZN17QtProtobufPrivate6QtCore5QCharC2Ev@Qt_6 6.6.0
 _ZN17QtProtobufPrivate6QtCore5QCharD1Ev@Qt_6 6.6.0
 _ZN17QtProtobufPrivate6QtCore5QCharD2Ev@Qt_6 6.6.0
 _ZN17QtProtobufPrivate6QtCore5QCharaSEOS1_@Qt_6 6.6.0
 _ZN17QtProtobufPrivate6QtCore5QCharaSERKS1_@Qt_6 6.6.0
 (subst)_ZN17QtProtobufPrivate6QtCore5QDate12setJulianDayERKN10QtProtobuf18TransparentWrapperI{int64_t}NS2_7int_tagEEE@Qt_6 6.6.0
 _ZN17QtProtobufPrivate6QtCore5QDate13registerTypesEv@Qt_6 6.6.0
 _ZN17QtProtobufPrivate6QtCore5QDate16propertyOrderingE@Qt_6 6.6.0
 _ZN17QtProtobufPrivate6QtCore5QDate16staticMetaObjectE@Qt_6 6.6.0
 _ZN17QtProtobufPrivate6QtCore5QDateC1EOS1_@Qt_6 6.6.0
 _ZN17QtProtobufPrivate6QtCore5QDateC1ERKS1_@Qt_6 6.6.0
 _ZN17QtProtobufPrivate6QtCore5QDateC1Ev@Qt_6 6.6.0
 _ZN17QtProtobufPrivate6QtCore5QDateC2EOS1_@Qt_6 6.6.0
 _ZN17QtProtobufPrivate6QtCore5QDateC2ERKS1_@Qt_6 6.6.0
 _ZN17QtProtobufPrivate6QtCore5QDateC2Ev@Qt_6 6.6.0
 _ZN17QtProtobufPrivate6QtCore5QDateD1Ev@Qt_6 6.6.0
 _ZN17QtProtobufPrivate6QtCore5QDateD2Ev@Qt_6 6.6.0
 _ZN17QtProtobufPrivate6QtCore5QDateaSEOS1_@Qt_6 6.6.0
 _ZN17QtProtobufPrivate6QtCore5QDateaSERKS1_@Qt_6 6.6.0
 _ZN17QtProtobufPrivate6QtCore5QRect13registerTypesEv@Qt_6 6.6.0
 _ZN17QtProtobufPrivate6QtCore5QRect16propertyOrderingE@Qt_6 6.6.0
 _ZN17QtProtobufPrivate6QtCore5QRect16staticMetaObjectE@Qt_6 6.6.0
 _ZN17QtProtobufPrivate6QtCore5QRect4setXERKi@Qt_6 6.6.0
 _ZN17QtProtobufPrivate6QtCore5QRect4setYERKi@Qt_6 6.6.0
 _ZN17QtProtobufPrivate6QtCore5QRect8setWidthERKN10QtProtobuf18TransparentWrapperIiNS2_7int_tagEEE@Qt_6 6.6.0
 _ZN17QtProtobufPrivate6QtCore5QRect9setHeightERKN10QtProtobuf18TransparentWrapperIiNS2_7int_tagEEE@Qt_6 6.6.0
 _ZN17QtProtobufPrivate6QtCore5QRectC1EOS1_@Qt_6 6.6.0
 _ZN17QtProtobufPrivate6QtCore5QRectC1ERKS1_@Qt_6 6.6.0
 _ZN17QtProtobufPrivate6QtCore5QRectC1Ev@Qt_6 6.6.0
 _ZN17QtProtobufPrivate6QtCore5QRectC2EOS1_@Qt_6 6.6.0
 _ZN17QtProtobufPrivate6QtCore5QRectC2ERKS1_@Qt_6 6.6.0
 _ZN17QtProtobufPrivate6QtCore5QRectC2Ev@Qt_6 6.6.0
 _ZN17QtProtobufPrivate6QtCore5QRectD1Ev@Qt_6 6.6.0
 _ZN17QtProtobufPrivate6QtCore5QRectD2Ev@Qt_6 6.6.0
 _ZN17QtProtobufPrivate6QtCore5QRectaSEOS1_@Qt_6 6.6.0
 _ZN17QtProtobufPrivate6QtCore5QRectaSERKS1_@Qt_6 6.6.0
 _ZN17QtProtobufPrivate6QtCore5QSize13registerTypesEv@Qt_6 6.6.0
 _ZN17QtProtobufPrivate6QtCore5QSize16propertyOrderingE@Qt_6 6.6.0
 _ZN17QtProtobufPrivate6QtCore5QSize16staticMetaObjectE@Qt_6 6.6.0
 _ZN17QtProtobufPrivate6QtCore5QSize8setWidthERKN10QtProtobuf18TransparentWrapperIiNS2_7int_tagEEE@Qt_6 6.6.0
 _ZN17QtProtobufPrivate6QtCore5QSize9setHeightERKN10QtProtobuf18TransparentWrapperIiNS2_7int_tagEEE@Qt_6 6.6.0
 _ZN17QtProtobufPrivate6QtCore5QSizeC1EOS1_@Qt_6 6.6.0
 _ZN17QtProtobufPrivate6QtCore5QSizeC1ERKS1_@Qt_6 6.6.0
 _ZN17QtProtobufPrivate6QtCore5QSizeC1Ev@Qt_6 6.6.0
 _ZN17QtProtobufPrivate6QtCore5QSizeC2EOS1_@Qt_6 6.6.0
 _ZN17QtProtobufPrivate6QtCore5QSizeC2ERKS1_@Qt_6 6.6.0
 _ZN17QtProtobufPrivate6QtCore5QSizeC2Ev@Qt_6 6.6.0
 _ZN17QtProtobufPrivate6QtCore5QSizeD1Ev@Qt_6 6.6.0
 _ZN17QtProtobufPrivate6QtCore5QSizeD2Ev@Qt_6 6.6.0
 _ZN17QtProtobufPrivate6QtCore5QSizeaSEOS1_@Qt_6 6.6.0
 _ZN17QtProtobufPrivate6QtCore5QSizeaSERKS1_@Qt_6 6.6.0
 _ZN17QtProtobufPrivate6QtCore5QTime13registerTypesEv@Qt_6 6.6.0
 _ZN17QtProtobufPrivate6QtCore5QTime16propertyOrderingE@Qt_6 6.6.0
 _ZN17QtProtobufPrivate6QtCore5QTime16staticMetaObjectE@Qt_6 6.6.0
 _ZN17QtProtobufPrivate6QtCore5QTime28setMillisecondsSinceMidnightERKN10QtProtobuf18TransparentWrapperIiNS2_7int_tagEEE@Qt_6 6.6.0
 _ZN17QtProtobufPrivate6QtCore5QTimeC1EOS1_@Qt_6 6.6.0
 _ZN17QtProtobufPrivate6QtCore5QTimeC1ERKS1_@Qt_6 6.6.0
 _ZN17QtProtobufPrivate6QtCore5QTimeC1Ev@Qt_6 6.6.0
 _ZN17QtProtobufPrivate6QtCore5QTimeC2EOS1_@Qt_6 6.6.0
 _ZN17QtProtobufPrivate6QtCore5QTimeC2ERKS1_@Qt_6 6.6.0
 _ZN17QtProtobufPrivate6QtCore5QTimeC2Ev@Qt_6 6.6.0
 _ZN17QtProtobufPrivate6QtCore5QTimeD1Ev@Qt_6 6.6.0
 _ZN17QtProtobufPrivate6QtCore5QTimeD2Ev@Qt_6 6.6.0
 _ZN17QtProtobufPrivate6QtCore5QTimeaSEOS1_@Qt_6 6.6.0
 _ZN17QtProtobufPrivate6QtCore5QTimeaSERKS1_@Qt_6 6.6.0
 _ZN17QtProtobufPrivate6QtCore5QUuid13registerTypesEv@Qt_6 6.6.0
 _ZN17QtProtobufPrivate6QtCore5QUuid14setRfc4122UuidERK10QByteArray@Qt_6 6.6.0
 _ZN17QtProtobufPrivate6QtCore5QUuid16propertyOrderingE@Qt_6 6.6.0
 _ZN17QtProtobufPrivate6QtCore5QUuid16staticMetaObjectE@Qt_6 6.6.0
 _ZN17QtProtobufPrivate6QtCore5QUuidC1EOS1_@Qt_6 6.6.0
 _ZN17QtProtobufPrivate6QtCore5QUuidC1ERKS1_@Qt_6 6.6.0
 _ZN17QtProtobufPrivate6QtCore5QUuidC1Ev@Qt_6 6.6.0
 _ZN17QtProtobufPrivate6QtCore5QUuidC2EOS1_@Qt_6 6.6.0
 _ZN17QtProtobufPrivate6QtCore5QUuidC2ERKS1_@Qt_6 6.6.0
 _ZN17QtProtobufPrivate6QtCore5QUuidC2Ev@Qt_6 6.6.0
 _ZN17QtProtobufPrivate6QtCore5QUuidD1Ev@Qt_6 6.6.0
 _ZN17QtProtobufPrivate6QtCore5QUuidD2Ev@Qt_6 6.6.0
 _ZN17QtProtobufPrivate6QtCore5QUuidaSEOS1_@Qt_6 6.6.0
 _ZN17QtProtobufPrivate6QtCore5QUuidaSERKS1_@Qt_6 6.6.0
 _ZN17QtProtobufPrivate6QtCore6QPoint13registerTypesEv@Qt_6 6.6.0
 _ZN17QtProtobufPrivate6QtCore6QPoint16propertyOrderingE@Qt_6 6.6.0
 _ZN17QtProtobufPrivate6QtCore6QPoint16staticMetaObjectE@Qt_6 6.6.0
 _ZN17QtProtobufPrivate6QtCore6QPoint4setXERKi@Qt_6 6.6.0
 _ZN17QtProtobufPrivate6QtCore6QPoint4setYERKi@Qt_6 6.6.0
 _ZN17QtProtobufPrivate6QtCore6QPointC1EOS1_@Qt_6 6.6.0
 _ZN17QtProtobufPrivate6QtCore6QPointC1ERKS1_@Qt_6 6.6.0
 _ZN17QtProtobufPrivate6QtCore6QPointC1Ev@Qt_6 6.6.0
 _ZN17QtProtobufPrivate6QtCore6QPointC2EOS1_@Qt_6 6.6.0
 _ZN17QtProtobufPrivate6QtCore6QPointC2ERKS1_@Qt_6 6.6.0
 _ZN17QtProtobufPrivate6QtCore6QPointC2Ev@Qt_6 6.6.0
 _ZN17QtProtobufPrivate6QtCore6QPointD1Ev@Qt_6 6.6.0
 _ZN17QtProtobufPrivate6QtCore6QPointD2Ev@Qt_6 6.6.0
 _ZN17QtProtobufPrivate6QtCore6QPointaSEOS1_@Qt_6 6.6.0
 _ZN17QtProtobufPrivate6QtCore6QPointaSERKS1_@Qt_6 6.6.0
 _ZN17QtProtobufPrivate6QtCore6QRectF13registerTypesEv@Qt_6 6.6.0
 _ZN17QtProtobufPrivate6QtCore6QRectF16propertyOrderingE@Qt_6 6.6.0
 _ZN17QtProtobufPrivate6QtCore6QRectF16staticMetaObjectE@Qt_6 6.6.0
 _ZN17QtProtobufPrivate6QtCore6QRectF4setXERKd@Qt_6 6.6.0
 _ZN17QtProtobufPrivate6QtCore6QRectF4setYERKd@Qt_6 6.6.0
 _ZN17QtProtobufPrivate6QtCore6QRectF8setWidthERKd@Qt_6 6.6.0
 _ZN17QtProtobufPrivate6QtCore6QRectF9setHeightERKd@Qt_6 6.6.0
 _ZN17QtProtobufPrivate6QtCore6QRectFC1EOS1_@Qt_6 6.6.0
 _ZN17QtProtobufPrivate6QtCore6QRectFC1ERKS1_@Qt_6 6.6.0
 _ZN17QtProtobufPrivate6QtCore6QRectFC1Ev@Qt_6 6.6.0
 _ZN17QtProtobufPrivate6QtCore6QRectFC2EOS1_@Qt_6 6.6.0
 _ZN17QtProtobufPrivate6QtCore6QRectFC2ERKS1_@Qt_6 6.6.0
 _ZN17QtProtobufPrivate6QtCore6QRectFC2Ev@Qt_6 6.6.0
 _ZN17QtProtobufPrivate6QtCore6QRectFD1Ev@Qt_6 6.6.0
 _ZN17QtProtobufPrivate6QtCore6QRectFD2Ev@Qt_6 6.6.0
 _ZN17QtProtobufPrivate6QtCore6QRectFaSEOS1_@Qt_6 6.6.0
 _ZN17QtProtobufPrivate6QtCore6QRectFaSERKS1_@Qt_6 6.6.0
 _ZN17QtProtobufPrivate6QtCore6QSizeF13registerTypesEv@Qt_6 6.6.0
 _ZN17QtProtobufPrivate6QtCore6QSizeF16propertyOrderingE@Qt_6 6.6.0
 _ZN17QtProtobufPrivate6QtCore6QSizeF16staticMetaObjectE@Qt_6 6.6.0
 _ZN17QtProtobufPrivate6QtCore6QSizeF8setWidthERKd@Qt_6 6.6.0
 _ZN17QtProtobufPrivate6QtCore6QSizeF9setHeightERKd@Qt_6 6.6.0
 _ZN17QtProtobufPrivate6QtCore6QSizeFC1EOS1_@Qt_6 6.6.0
 _ZN17QtProtobufPrivate6QtCore6QSizeFC1ERKS1_@Qt_6 6.6.0
 _ZN17QtProtobufPrivate6QtCore6QSizeFC1Ev@Qt_6 6.6.0
 _ZN17QtProtobufPrivate6QtCore6QSizeFC2EOS1_@Qt_6 6.6.0
 _ZN17QtProtobufPrivate6QtCore6QSizeFC2ERKS1_@Qt_6 6.6.0
 _ZN17QtProtobufPrivate6QtCore6QSizeFC2Ev@Qt_6 6.6.0
 _ZN17QtProtobufPrivate6QtCore6QSizeFD1Ev@Qt_6 6.6.0
 _ZN17QtProtobufPrivate6QtCore6QSizeFD2Ev@Qt_6 6.6.0
 _ZN17QtProtobufPrivate6QtCore6QSizeFaSEOS1_@Qt_6 6.6.0
 _ZN17QtProtobufPrivate6QtCore6QSizeFaSERKS1_@Qt_6 6.6.0
 _ZN17QtProtobufPrivate6QtCore7QPointF13registerTypesEv@Qt_6 6.6.0
 _ZN17QtProtobufPrivate6QtCore7QPointF16propertyOrderingE@Qt_6 6.6.0
 _ZN17QtProtobufPrivate6QtCore7QPointF16staticMetaObjectE@Qt_6 6.6.0
 _ZN17QtProtobufPrivate6QtCore7QPointF4setXERKd@Qt_6 6.6.0
 _ZN17QtProtobufPrivate6QtCore7QPointF4setYERKd@Qt_6 6.6.0
 _ZN17QtProtobufPrivate6QtCore7QPointFC1EOS1_@Qt_6 6.6.0
 _ZN17QtProtobufPrivate6QtCore7QPointFC1ERKS1_@Qt_6 6.6.0
 _ZN17QtProtobufPrivate6QtCore7QPointFC1Ev@Qt_6 6.6.0
 _ZN17QtProtobufPrivate6QtCore7QPointFC2EOS1_@Qt_6 6.6.0
 _ZN17QtProtobufPrivate6QtCore7QPointFC2ERKS1_@Qt_6 6.6.0
 _ZN17QtProtobufPrivate6QtCore7QPointFC2Ev@Qt_6 6.6.0
 _ZN17QtProtobufPrivate6QtCore7QPointFD1Ev@Qt_6 6.6.0
 _ZN17QtProtobufPrivate6QtCore7QPointFD2Ev@Qt_6 6.6.0
 _ZN17QtProtobufPrivate6QtCore7QPointFaSEOS1_@Qt_6 6.6.0
 _ZN17QtProtobufPrivate6QtCore7QPointFaSERKS1_@Qt_6 6.6.0
 _ZN17QtProtobufPrivate6QtCore9QDateTime11setTimeZoneERKNS0_9QTimeZoneE@Qt_6 6.6.0
 _ZN17QtProtobufPrivate6QtCore9QDateTime13registerTypesEv@Qt_6 6.6.0
 _ZN17QtProtobufPrivate6QtCore9QDateTime13setTimeZone_pEPNS0_9QTimeZoneE@Qt_6 6.6.0
 _ZN17QtProtobufPrivate6QtCore9QDateTime16propertyOrderingE@Qt_6 6.6.0
 _ZN17QtProtobufPrivate6QtCore9QDateTime16staticMetaObjectE@Qt_6 6.6.0
 (subst)_ZN17QtProtobufPrivate6QtCore9QDateTime25setUtcMsecsSinceUnixEpochERKN10QtProtobuf18TransparentWrapperI{int64_t}NS2_7int_tagEEE@Qt_6 6.6.0
 _ZN17QtProtobufPrivate6QtCore9QDateTimeC1EOS1_@Qt_6 6.6.0
 _ZN17QtProtobufPrivate6QtCore9QDateTimeC1ERKS1_@Qt_6 6.6.0
 _ZN17QtProtobufPrivate6QtCore9QDateTimeC1Ev@Qt_6 6.6.0
 _ZN17QtProtobufPrivate6QtCore9QDateTimeC2EOS1_@Qt_6 6.6.0
 _ZN17QtProtobufPrivate6QtCore9QDateTimeC2ERKS1_@Qt_6 6.6.0
 _ZN17QtProtobufPrivate6QtCore9QDateTimeC2Ev@Qt_6 6.6.0
 _ZN17QtProtobufPrivate6QtCore9QDateTimeD1Ev@Qt_6 6.6.0
 _ZN17QtProtobufPrivate6QtCore9QDateTimeD2Ev@Qt_6 6.6.0
 _ZN17QtProtobufPrivate6QtCore9QDateTimeaSEOS1_@Qt_6 6.6.0
 _ZN17QtProtobufPrivate6QtCore9QDateTimeaSERKS1_@Qt_6 6.6.0
 _ZN17QtProtobufPrivate6QtCore9QTimeZone11setIanaId_pE10QByteArray@Qt_6 6.6.0
 _ZN17QtProtobufPrivate6QtCore9QTimeZone11setTimeSpecERKNS1_8TimeSpecE@Qt_6 6.6.0
 _ZN17QtProtobufPrivate6QtCore9QTimeZone13clearTimeZoneEv@Qt_6 6.6.0
 _ZN17QtProtobufPrivate6QtCore9QTimeZone13registerTypesEv@Qt_6 6.6.0
 _ZN17QtProtobufPrivate6QtCore9QTimeZone13setTimeSpec_pENS1_8TimeSpecE@Qt_6 6.6.0
 _ZN17QtProtobufPrivate6QtCore9QTimeZone16propertyOrderingE@Qt_6 6.6.0
 _ZN17QtProtobufPrivate6QtCore9QTimeZone16setOffsetSecondsERKN10QtProtobuf18TransparentWrapperIiNS2_7int_tagEEE@Qt_6 6.6.0
 _ZN17QtProtobufPrivate6QtCore9QTimeZone16staticMetaObjectE@Qt_6 6.6.0
 _ZN17QtProtobufPrivate6QtCore9QTimeZone18setOffsetSeconds_pEN10QtProtobuf18TransparentWrapperIiNS2_7int_tagEEE@Qt_6 6.6.0
 _ZN17QtProtobufPrivate6QtCore9QTimeZone9setIanaIdERK10QByteArray@Qt_6 6.6.0
 _ZN17QtProtobufPrivate6QtCore9QTimeZoneC1EOS1_@Qt_6 6.6.0
 _ZN17QtProtobufPrivate6QtCore9QTimeZoneC1ERKS1_@Qt_6 6.6.0
 _ZN17QtProtobufPrivate6QtCore9QTimeZoneC1Ev@Qt_6 6.6.0
 _ZN17QtProtobufPrivate6QtCore9QTimeZoneC2EOS1_@Qt_6 6.6.0
 _ZN17QtProtobufPrivate6QtCore9QTimeZoneC2ERKS1_@Qt_6 6.6.0
 _ZN17QtProtobufPrivate6QtCore9QTimeZoneC2Ev@Qt_6 6.6.0
 _ZN17QtProtobufPrivate6QtCore9QTimeZoneD1Ev@Qt_6 6.6.0
 _ZN17QtProtobufPrivate6QtCore9QTimeZoneD2Ev@Qt_6 6.6.0
 _ZN17QtProtobufPrivate6QtCore9QTimeZoneaSEOS1_@Qt_6 6.6.0
 _ZN17QtProtobufPrivate6QtCore9QTimeZoneaSERKS1_@Qt_6 6.6.0
 _ZNK17QtProtobufPrivate6QtCore14QVersionNumber8segmentsEv@Qt_6 6.6.0
 _ZNK17QtProtobufPrivate6QtCore14QVersionNumbereqERKS1_@Qt_6 6.6.0
 _ZNK17QtProtobufPrivate6QtCore14QVersionNumberneERKS1_@Qt_6 6.6.0
 _ZNK17QtProtobufPrivate6QtCore4QUrl3urlEv@Qt_6 6.6.0
 _ZNK17QtProtobufPrivate6QtCore4QUrleqERKS1_@Qt_6 6.6.0
 _ZNK17QtProtobufPrivate6QtCore4QUrlneERKS1_@Qt_6 6.6.0
 _ZNK17QtProtobufPrivate6QtCore5QChar14utf16CodePointEv@Qt_6 6.6.0
 _ZNK17QtProtobufPrivate6QtCore5QChareqERKS1_@Qt_6 6.6.0
 _ZNK17QtProtobufPrivate6QtCore5QCharneERKS1_@Qt_6 6.6.0
 _ZNK17QtProtobufPrivate6QtCore5QDate9julianDayEv@Qt_6 6.6.0
 _ZNK17QtProtobufPrivate6QtCore5QDateeqERKS1_@Qt_6 6.6.0
 _ZNK17QtProtobufPrivate6QtCore5QDateneERKS1_@Qt_6 6.6.0
 _ZNK17QtProtobufPrivate6QtCore5QRect1xEv@Qt_6 6.6.0
 _ZNK17QtProtobufPrivate6QtCore5QRect1yEv@Qt_6 6.6.0
 _ZNK17QtProtobufPrivate6QtCore5QRect5widthEv@Qt_6 6.6.0
 _ZNK17QtProtobufPrivate6QtCore5QRect6heightEv@Qt_6 6.6.0
 _ZNK17QtProtobufPrivate6QtCore5QRecteqERKS1_@Qt_6 6.6.0
 _ZNK17QtProtobufPrivate6QtCore5QRectneERKS1_@Qt_6 6.6.0
 _ZNK17QtProtobufPrivate6QtCore5QSize5widthEv@Qt_6 6.6.0
 _ZNK17QtProtobufPrivate6QtCore5QSize6heightEv@Qt_6 6.6.0
 _ZNK17QtProtobufPrivate6QtCore5QSizeeqERKS1_@Qt_6 6.6.0
 _ZNK17QtProtobufPrivate6QtCore5QSizeneERKS1_@Qt_6 6.6.0
 _ZNK17QtProtobufPrivate6QtCore5QTime25millisecondsSinceMidnightEv@Qt_6 6.6.0
 _ZNK17QtProtobufPrivate6QtCore5QTimeeqERKS1_@Qt_6 6.6.0
 _ZNK17QtProtobufPrivate6QtCore5QTimeneERKS1_@Qt_6 6.6.0
 _ZNK17QtProtobufPrivate6QtCore5QUuid11rfc4122UuidEv@Qt_6 6.6.0
 _ZNK17QtProtobufPrivate6QtCore5QUuideqERKS1_@Qt_6 6.6.0
 _ZNK17QtProtobufPrivate6QtCore5QUuidneERKS1_@Qt_6 6.6.0
 _ZNK17QtProtobufPrivate6QtCore6QPoint1xEv@Qt_6 6.6.0
 _ZNK17QtProtobufPrivate6QtCore6QPoint1yEv@Qt_6 6.6.0
 _ZNK17QtProtobufPrivate6QtCore6QPointeqERKS1_@Qt_6 6.6.0
 _ZNK17QtProtobufPrivate6QtCore6QPointneERKS1_@Qt_6 6.6.0
 _ZNK17QtProtobufPrivate6QtCore6QRectF1xEv@Qt_6 6.6.0
 _ZNK17QtProtobufPrivate6QtCore6QRectF1yEv@Qt_6 6.6.0
 _ZNK17QtProtobufPrivate6QtCore6QRectF5widthEv@Qt_6 6.6.0
 _ZNK17QtProtobufPrivate6QtCore6QRectF6heightEv@Qt_6 6.6.0
 _ZNK17QtProtobufPrivate6QtCore6QRectFeqERKS1_@Qt_6 6.6.0
 _ZNK17QtProtobufPrivate6QtCore6QRectFneERKS1_@Qt_6 6.6.0
 _ZNK17QtProtobufPrivate6QtCore6QSizeF5widthEv@Qt_6 6.6.0
 _ZNK17QtProtobufPrivate6QtCore6QSizeF6heightEv@Qt_6 6.6.0
 _ZNK17QtProtobufPrivate6QtCore6QSizeFeqERKS1_@Qt_6 6.6.0
 _ZNK17QtProtobufPrivate6QtCore6QSizeFneERKS1_@Qt_6 6.6.0
 _ZNK17QtProtobufPrivate6QtCore7QPointF1xEv@Qt_6 6.6.0
 _ZNK17QtProtobufPrivate6QtCore7QPointF1yEv@Qt_6 6.6.0
 _ZNK17QtProtobufPrivate6QtCore7QPointFeqERKS1_@Qt_6 6.6.0
 _ZNK17QtProtobufPrivate6QtCore7QPointFneERKS1_@Qt_6 6.6.0
 _ZNK17QtProtobufPrivate6QtCore9QDateTime10timeZone_pEv@Qt_6 6.6.0
 _ZNK17QtProtobufPrivate6QtCore9QDateTime22utcMsecsSinceUnixEpochEv@Qt_6 6.6.0
 _ZNK17QtProtobufPrivate6QtCore9QDateTime8timeZoneEv@Qt_6 6.6.0
 _ZNK17QtProtobufPrivate6QtCore9QDateTimeeqERKS1_@Qt_6 6.6.0
 _ZNK17QtProtobufPrivate6QtCore9QDateTimeneERKS1_@Qt_6 6.6.0
 _ZNK17QtProtobufPrivate6QtCore9QTimeZone10timeSpec_pEv@Qt_6 6.6.0
 _ZNK17QtProtobufPrivate6QtCore9QTimeZone11hasTimeSpecEv@Qt_6 6.6.0
 _ZNK17QtProtobufPrivate6QtCore9QTimeZone13offsetSecondsEv@Qt_6 6.6.0
 _ZNK17QtProtobufPrivate6QtCore9QTimeZone13timeZoneFieldEv@Qt_6 6.6.0
 _ZNK17QtProtobufPrivate6QtCore9QTimeZone15offsetSeconds_pEv@Qt_6 6.6.0
 _ZNK17QtProtobufPrivate6QtCore9QTimeZone16hasOffsetSecondsEv@Qt_6 6.6.0
 _ZNK17QtProtobufPrivate6QtCore9QTimeZone6ianaIdEv@Qt_6 6.6.0
 _ZNK17QtProtobufPrivate6QtCore9QTimeZone8ianaId_pEv@Qt_6 6.6.0
 _ZNK17QtProtobufPrivate6QtCore9QTimeZone8timeSpecEv@Qt_6 6.6.0
 _ZNK17QtProtobufPrivate6QtCore9QTimeZone9hasIanaIdEv@Qt_6 6.6.0
 _ZNK17QtProtobufPrivate6QtCore9QTimeZoneeqERKS1_@Qt_6 6.6.0
 _ZNK17QtProtobufPrivate6QtCore9QTimeZoneneERKS1_@Qt_6 6.6.0
 _ZTIZN9QMetaType17registerConverterI5QListIN10QtProtobuf18TransparentWrapperIiNS2_7int_tagEEEE9QIterableI13QMetaSequenceEN9QtPrivate33QSequentialIterableConvertFunctorIS6_EEEEbT1_EUlPKvPvE_@Qt_6 6.6.0
 _ZTIZN9QMetaType17registerConverterI5QListIN17QtProtobufPrivate6QtCore14QVersionNumberEE9QIterableI13QMetaSequenceEN9QtPrivate33QSequentialIterableConvertFunctorIS5_EEEEbT1_EUlPKvPvE_@Qt_6 6.6.0
 _ZTIZN9QMetaType17registerConverterI5QListIN17QtProtobufPrivate6QtCore4QUrlEE9QIterableI13QMetaSequenceEN9QtPrivate33QSequentialIterableConvertFunctorIS5_EEEEbT1_EUlPKvPvE_@Qt_6 6.6.0
 _ZTIZN9QMetaType17registerConverterI5QListIN17QtProtobufPrivate6QtCore5QCharEE9QIterableI13QMetaSequenceEN9QtPrivate33QSequentialIterableConvertFunctorIS5_EEEEbT1_EUlPKvPvE_@Qt_6 6.6.0
 _ZTIZN9QMetaType17registerConverterI5QListIN17QtProtobufPrivate6QtCore5QDateEE9QIterableI13QMetaSequenceEN9QtPrivate33QSequentialIterableConvertFunctorIS5_EEEEbT1_EUlPKvPvE_@Qt_6 6.6.0
 _ZTIZN9QMetaType17registerConverterI5QListIN17QtProtobufPrivate6QtCore5QRectEE9QIterableI13QMetaSequenceEN9QtPrivate33QSequentialIterableConvertFunctorIS5_EEEEbT1_EUlPKvPvE_@Qt_6 6.6.0
 _ZTIZN9QMetaType17registerConverterI5QListIN17QtProtobufPrivate6QtCore5QSizeEE9QIterableI13QMetaSequenceEN9QtPrivate33QSequentialIterableConvertFunctorIS5_EEEEbT1_EUlPKvPvE_@Qt_6 6.6.0
 _ZTIZN9QMetaType17registerConverterI5QListIN17QtProtobufPrivate6QtCore5QTimeEE9QIterableI13QMetaSequenceEN9QtPrivate33QSequentialIterableConvertFunctorIS5_EEEEbT1_EUlPKvPvE_@Qt_6 6.6.0
 _ZTIZN9QMetaType17registerConverterI5QListIN17QtProtobufPrivate6QtCore5QUuidEE9QIterableI13QMetaSequenceEN9QtPrivate33QSequentialIterableConvertFunctorIS5_EEEEbT1_EUlPKvPvE_@Qt_6 6.6.0
 _ZTIZN9QMetaType17registerConverterI5QListIN17QtProtobufPrivate6QtCore6QPointEE9QIterableI13QMetaSequenceEN9QtPrivate33QSequentialIterableConvertFunctorIS5_EEEEbT1_EUlPKvPvE_@Qt_6 6.6.0
 _ZTIZN9QMetaType17registerConverterI5QListIN17QtProtobufPrivate6QtCore6QRectFEE9QIterableI13QMetaSequenceEN9QtPrivate33QSequentialIterableConvertFunctorIS5_EEEEbT1_EUlPKvPvE_@Qt_6 6.6.0
 _ZTIZN9QMetaType17registerConverterI5QListIN17QtProtobufPrivate6QtCore6QSizeFEE9QIterableI13QMetaSequenceEN9QtPrivate33QSequentialIterableConvertFunctorIS5_EEEEbT1_EUlPKvPvE_@Qt_6 6.6.0
 _ZTIZN9QMetaType17registerConverterI5QListIN17QtProtobufPrivate6QtCore7QPointFEE9QIterableI13QMetaSequenceEN9QtPrivate33QSequentialIterableConvertFunctorIS5_EEEEbT1_EUlPKvPvE_@Qt_6 6.6.0
 _ZTIZN9QMetaType17registerConverterI5QListIN17QtProtobufPrivate6QtCore9QDateTimeEE9QIterableI13QMetaSequenceEN9QtPrivate33QSequentialIterableConvertFunctorIS5_EEEEbT1_EUlPKvPvE_@Qt_6 6.6.0
 _ZTIZN9QMetaType17registerConverterI5QListIN17QtProtobufPrivate6QtCore9QTimeZone8TimeSpecEE9QIterableI13QMetaSequenceEN9QtPrivate33QSequentialIterableConvertFunctorIS6_EEEEbT1_EUlPKvPvE_@Qt_6 6.6.0
 _ZTIZN9QMetaType17registerConverterI5QListIN17QtProtobufPrivate6QtCore9QTimeZoneEE9QIterableI13QMetaSequenceEN9QtPrivate33QSequentialIterableConvertFunctorIS5_EEEEbT1_EUlPKvPvE_@Qt_6 6.6.0
 _ZTIZN9QMetaType19registerMutableViewI5QListIN10QtProtobuf18TransparentWrapperIiNS2_7int_tagEEEE9QIterableI13QMetaSequenceEN9QtPrivate37QSequentialIterableMutableViewFunctorIS6_EEEEbT1_EUlPvSE_E_@Qt_6 6.6.0
 _ZTIZN9QMetaType19registerMutableViewI5QListIN17QtProtobufPrivate6QtCore14QVersionNumberEE9QIterableI13QMetaSequenceEN9QtPrivate37QSequentialIterableMutableViewFunctorIS5_EEEEbT1_EUlPvSD_E_@Qt_6 6.6.0
 _ZTIZN9QMetaType19registerMutableViewI5QListIN17QtProtobufPrivate6QtCore4QUrlEE9QIterableI13QMetaSequenceEN9QtPrivate37QSequentialIterableMutableViewFunctorIS5_EEEEbT1_EUlPvSD_E_@Qt_6 6.6.0
 _ZTIZN9QMetaType19registerMutableViewI5QListIN17QtProtobufPrivate6QtCore5QCharEE9QIterableI13QMetaSequenceEN9QtPrivate37QSequentialIterableMutableViewFunctorIS5_EEEEbT1_EUlPvSD_E_@Qt_6 6.6.0
 _ZTIZN9QMetaType19registerMutableViewI5QListIN17QtProtobufPrivate6QtCore5QDateEE9QIterableI13QMetaSequenceEN9QtPrivate37QSequentialIterableMutableViewFunctorIS5_EEEEbT1_EUlPvSD_E_@Qt_6 6.6.0
 _ZTIZN9QMetaType19registerMutableViewI5QListIN17QtProtobufPrivate6QtCore5QRectEE9QIterableI13QMetaSequenceEN9QtPrivate37QSequentialIterableMutableViewFunctorIS5_EEEEbT1_EUlPvSD_E_@Qt_6 6.6.0
 _ZTIZN9QMetaType19registerMutableViewI5QListIN17QtProtobufPrivate6QtCore5QSizeEE9QIterableI13QMetaSequenceEN9QtPrivate37QSequentialIterableMutableViewFunctorIS5_EEEEbT1_EUlPvSD_E_@Qt_6 6.6.0
 _ZTIZN9QMetaType19registerMutableViewI5QListIN17QtProtobufPrivate6QtCore5QTimeEE9QIterableI13QMetaSequenceEN9QtPrivate37QSequentialIterableMutableViewFunctorIS5_EEEEbT1_EUlPvSD_E_@Qt_6 6.6.0
 _ZTIZN9QMetaType19registerMutableViewI5QListIN17QtProtobufPrivate6QtCore5QUuidEE9QIterableI13QMetaSequenceEN9QtPrivate37QSequentialIterableMutableViewFunctorIS5_EEEEbT1_EUlPvSD_E_@Qt_6 6.6.0
 _ZTIZN9QMetaType19registerMutableViewI5QListIN17QtProtobufPrivate6QtCore6QPointEE9QIterableI13QMetaSequenceEN9QtPrivate37QSequentialIterableMutableViewFunctorIS5_EEEEbT1_EUlPvSD_E_@Qt_6 6.6.0
 _ZTIZN9QMetaType19registerMutableViewI5QListIN17QtProtobufPrivate6QtCore6QRectFEE9QIterableI13QMetaSequenceEN9QtPrivate37QSequentialIterableMutableViewFunctorIS5_EEEEbT1_EUlPvSD_E_@Qt_6 6.6.0
 _ZTIZN9QMetaType19registerMutableViewI5QListIN17QtProtobufPrivate6QtCore6QSizeFEE9QIterableI13QMetaSequenceEN9QtPrivate37QSequentialIterableMutableViewFunctorIS5_EEEEbT1_EUlPvSD_E_@Qt_6 6.6.0
 _ZTIZN9QMetaType19registerMutableViewI5QListIN17QtProtobufPrivate6QtCore7QPointFEE9QIterableI13QMetaSequenceEN9QtPrivate37QSequentialIterableMutableViewFunctorIS5_EEEEbT1_EUlPvSD_E_@Qt_6 6.6.0
 _ZTIZN9QMetaType19registerMutableViewI5QListIN17QtProtobufPrivate6QtCore9QDateTimeEE9QIterableI13QMetaSequenceEN9QtPrivate37QSequentialIterableMutableViewFunctorIS5_EEEEbT1_EUlPvSD_E_@Qt_6 6.6.0
 _ZTIZN9QMetaType19registerMutableViewI5QListIN17QtProtobufPrivate6QtCore9QTimeZone8TimeSpecEE9QIterableI13QMetaSequenceEN9QtPrivate37QSequentialIterableMutableViewFunctorIS6_EEEEbT1_EUlPvSE_E_@Qt_6 6.6.0
 _ZTIZN9QMetaType19registerMutableViewI5QListIN17QtProtobufPrivate6QtCore9QTimeZoneEE9QIterableI13QMetaSequenceEN9QtPrivate37QSequentialIterableMutableViewFunctorIS5_EEEEbT1_EUlPvSD_E_@Qt_6 6.6.0
 _ZTSZN9QMetaType17registerConverterI5QListIN10QtProtobuf18TransparentWrapperIiNS2_7int_tagEEEE9QIterableI13QMetaSequenceEN9QtPrivate33QSequentialIterableConvertFunctorIS6_EEEEbT1_EUlPKvPvE_@Qt_6 6.6.0
 _ZTSZN9QMetaType17registerConverterI5QListIN17QtProtobufPrivate6QtCore14QVersionNumberEE9QIterableI13QMetaSequenceEN9QtPrivate33QSequentialIterableConvertFunctorIS5_EEEEbT1_EUlPKvPvE_@Qt_6 6.6.0
 _ZTSZN9QMetaType17registerConverterI5QListIN17QtProtobufPrivate6QtCore4QUrlEE9QIterableI13QMetaSequenceEN9QtPrivate33QSequentialIterableConvertFunctorIS5_EEEEbT1_EUlPKvPvE_@Qt_6 6.6.0
 _ZTSZN9QMetaType17registerConverterI5QListIN17QtProtobufPrivate6QtCore5QCharEE9QIterableI13QMetaSequenceEN9QtPrivate33QSequentialIterableConvertFunctorIS5_EEEEbT1_EUlPKvPvE_@Qt_6 6.6.0
 _ZTSZN9QMetaType17registerConverterI5QListIN17QtProtobufPrivate6QtCore5QDateEE9QIterableI13QMetaSequenceEN9QtPrivate33QSequentialIterableConvertFunctorIS5_EEEEbT1_EUlPKvPvE_@Qt_6 6.6.0
 _ZTSZN9QMetaType17registerConverterI5QListIN17QtProtobufPrivate6QtCore5QRectEE9QIterableI13QMetaSequenceEN9QtPrivate33QSequentialIterableConvertFunctorIS5_EEEEbT1_EUlPKvPvE_@Qt_6 6.6.0
 _ZTSZN9QMetaType17registerConverterI5QListIN17QtProtobufPrivate6QtCore5QSizeEE9QIterableI13QMetaSequenceEN9QtPrivate33QSequentialIterableConvertFunctorIS5_EEEEbT1_EUlPKvPvE_@Qt_6 6.6.0
 _ZTSZN9QMetaType17registerConverterI5QListIN17QtProtobufPrivate6QtCore5QTimeEE9QIterableI13QMetaSequenceEN9QtPrivate33QSequentialIterableConvertFunctorIS5_EEEEbT1_EUlPKvPvE_@Qt_6 6.6.0
 _ZTSZN9QMetaType17registerConverterI5QListIN17QtProtobufPrivate6QtCore5QUuidEE9QIterableI13QMetaSequenceEN9QtPrivate33QSequentialIterableConvertFunctorIS5_EEEEbT1_EUlPKvPvE_@Qt_6 6.6.0
 _ZTSZN9QMetaType17registerConverterI5QListIN17QtProtobufPrivate6QtCore6QPointEE9QIterableI13QMetaSequenceEN9QtPrivate33QSequentialIterableConvertFunctorIS5_EEEEbT1_EUlPKvPvE_@Qt_6 6.6.0
 _ZTSZN9QMetaType17registerConverterI5QListIN17QtProtobufPrivate6QtCore6QRectFEE9QIterableI13QMetaSequenceEN9QtPrivate33QSequentialIterableConvertFunctorIS5_EEEEbT1_EUlPKvPvE_@Qt_6 6.6.0
 _ZTSZN9QMetaType17registerConverterI5QListIN17QtProtobufPrivate6QtCore6QSizeFEE9QIterableI13QMetaSequenceEN9QtPrivate33QSequentialIterableConvertFunctorIS5_EEEEbT1_EUlPKvPvE_@Qt_6 6.6.0
 _ZTSZN9QMetaType17registerConverterI5QListIN17QtProtobufPrivate6QtCore7QPointFEE9QIterableI13QMetaSequenceEN9QtPrivate33QSequentialIterableConvertFunctorIS5_EEEEbT1_EUlPKvPvE_@Qt_6 6.6.0
 _ZTSZN9QMetaType17registerConverterI5QListIN17QtProtobufPrivate6QtCore9QDateTimeEE9QIterableI13QMetaSequenceEN9QtPrivate33QSequentialIterableConvertFunctorIS5_EEEEbT1_EUlPKvPvE_@Qt_6 6.6.0
 _ZTSZN9QMetaType17registerConverterI5QListIN17QtProtobufPrivate6QtCore9QTimeZone8TimeSpecEE9QIterableI13QMetaSequenceEN9QtPrivate33QSequentialIterableConvertFunctorIS6_EEEEbT1_EUlPKvPvE_@Qt_6 6.6.0
 _ZTSZN9QMetaType17registerConverterI5QListIN17QtProtobufPrivate6QtCore9QTimeZoneEE9QIterableI13QMetaSequenceEN9QtPrivate33QSequentialIterableConvertFunctorIS5_EEEEbT1_EUlPKvPvE_@Qt_6 6.6.0
 _ZTSZN9QMetaType19registerMutableViewI5QListIN10QtProtobuf18TransparentWrapperIiNS2_7int_tagEEEE9QIterableI13QMetaSequenceEN9QtPrivate37QSequentialIterableMutableViewFunctorIS6_EEEEbT1_EUlPvSE_E_@Qt_6 6.6.0
 _ZTSZN9QMetaType19registerMutableViewI5QListIN17QtProtobufPrivate6QtCore14QVersionNumberEE9QIterableI13QMetaSequenceEN9QtPrivate37QSequentialIterableMutableViewFunctorIS5_EEEEbT1_EUlPvSD_E_@Qt_6 6.6.0
 _ZTSZN9QMetaType19registerMutableViewI5QListIN17QtProtobufPrivate6QtCore4QUrlEE9QIterableI13QMetaSequenceEN9QtPrivate37QSequentialIterableMutableViewFunctorIS5_EEEEbT1_EUlPvSD_E_@Qt_6 6.6.0
 _ZTSZN9QMetaType19registerMutableViewI5QListIN17QtProtobufPrivate6QtCore5QCharEE9QIterableI13QMetaSequenceEN9QtPrivate37QSequentialIterableMutableViewFunctorIS5_EEEEbT1_EUlPvSD_E_@Qt_6 6.6.0
 _ZTSZN9QMetaType19registerMutableViewI5QListIN17QtProtobufPrivate6QtCore5QDateEE9QIterableI13QMetaSequenceEN9QtPrivate37QSequentialIterableMutableViewFunctorIS5_EEEEbT1_EUlPvSD_E_@Qt_6 6.6.0
 _ZTSZN9QMetaType19registerMutableViewI5QListIN17QtProtobufPrivate6QtCore5QRectEE9QIterableI13QMetaSequenceEN9QtPrivate37QSequentialIterableMutableViewFunctorIS5_EEEEbT1_EUlPvSD_E_@Qt_6 6.6.0
 _ZTSZN9QMetaType19registerMutableViewI5QListIN17QtProtobufPrivate6QtCore5QSizeEE9QIterableI13QMetaSequenceEN9QtPrivate37QSequentialIterableMutableViewFunctorIS5_EEEEbT1_EUlPvSD_E_@Qt_6 6.6.0
 _ZTSZN9QMetaType19registerMutableViewI5QListIN17QtProtobufPrivate6QtCore5QTimeEE9QIterableI13QMetaSequenceEN9QtPrivate37QSequentialIterableMutableViewFunctorIS5_EEEEbT1_EUlPvSD_E_@Qt_6 6.6.0
 _ZTSZN9QMetaType19registerMutableViewI5QListIN17QtProtobufPrivate6QtCore5QUuidEE9QIterableI13QMetaSequenceEN9QtPrivate37QSequentialIterableMutableViewFunctorIS5_EEEEbT1_EUlPvSD_E_@Qt_6 6.6.0
 _ZTSZN9QMetaType19registerMutableViewI5QListIN17QtProtobufPrivate6QtCore6QPointEE9QIterableI13QMetaSequenceEN9QtPrivate37QSequentialIterableMutableViewFunctorIS5_EEEEbT1_EUlPvSD_E_@Qt_6 6.6.0
 _ZTSZN9QMetaType19registerMutableViewI5QListIN17QtProtobufPrivate6QtCore6QRectFEE9QIterableI13QMetaSequenceEN9QtPrivate37QSequentialIterableMutableViewFunctorIS5_EEEEbT1_EUlPvSD_E_@Qt_6 6.6.0
 _ZTSZN9QMetaType19registerMutableViewI5QListIN17QtProtobufPrivate6QtCore6QSizeFEE9QIterableI13QMetaSequenceEN9QtPrivate37QSequentialIterableMutableViewFunctorIS5_EEEEbT1_EUlPvSD_E_@Qt_6 6.6.0
 _ZTSZN9QMetaType19registerMutableViewI5QListIN17QtProtobufPrivate6QtCore7QPointFEE9QIterableI13QMetaSequenceEN9QtPrivate37QSequentialIterableMutableViewFunctorIS5_EEEEbT1_EUlPvSD_E_@Qt_6 6.6.0
 _ZTSZN9QMetaType19registerMutableViewI5QListIN17QtProtobufPrivate6QtCore9QDateTimeEE9QIterableI13QMetaSequenceEN9QtPrivate37QSequentialIterableMutableViewFunctorIS5_EEEEbT1_EUlPvSD_E_@Qt_6 6.6.0
 _ZTSZN9QMetaType19registerMutableViewI5QListIN17QtProtobufPrivate6QtCore9QTimeZone8TimeSpecEE9QIterableI13QMetaSequenceEN9QtPrivate37QSequentialIterableMutableViewFunctorIS6_EEEEbT1_EUlPvSE_E_@Qt_6 6.6.0
 _ZTSZN9QMetaType19registerMutableViewI5QListIN17QtProtobufPrivate6QtCore9QTimeZoneEE9QIterableI13QMetaSequenceEN9QtPrivate37QSequentialIterableMutableViewFunctorIS5_EEEEbT1_EUlPvSD_E_@Qt_6 6.6.0
 (optional=templinst)_ZZN9QMetaType21registerConverterImplI5QListIN10QtProtobuf18TransparentWrapperIiNS2_7int_tagEEEE9QIterableI13QMetaSequenceEEEbSt8functionIFbPKvPvEES_S_E10unregister@Qt_6 6.6.0
 (optional=templinst)_ZZN9QMetaType21registerConverterImplI5QListIN17QtProtobufPrivate6QtCore14QVersionNumberEE9QIterableI13QMetaSequenceEEEbSt8functionIFbPKvPvEES_S_E10unregister@Qt_6 6.6.0
 (optional=templinst)_ZZN9QMetaType21registerConverterImplI5QListIN17QtProtobufPrivate6QtCore4QUrlEE9QIterableI13QMetaSequenceEEEbSt8functionIFbPKvPvEES_S_E10unregister@Qt_6 6.6.0
 (optional=templinst)_ZZN9QMetaType21registerConverterImplI5QListIN17QtProtobufPrivate6QtCore5QCharEE9QIterableI13QMetaSequenceEEEbSt8functionIFbPKvPvEES_S_E10unregister@Qt_6 6.6.0
 (optional=templinst)_ZZN9QMetaType21registerConverterImplI5QListIN17QtProtobufPrivate6QtCore5QDateEE9QIterableI13QMetaSequenceEEEbSt8functionIFbPKvPvEES_S_E10unregister@Qt_6 6.6.0
 (optional=templinst)_ZZN9QMetaType21registerConverterImplI5QListIN17QtProtobufPrivate6QtCore5QRectEE9QIterableI13QMetaSequenceEEEbSt8functionIFbPKvPvEES_S_E10unregister@Qt_6 6.6.0
 (optional=templinst)_ZZN9QMetaType21registerConverterImplI5QListIN17QtProtobufPrivate6QtCore5QSizeEE9QIterableI13QMetaSequenceEEEbSt8functionIFbPKvPvEES_S_E10unregister@Qt_6 6.6.0
 (optional=templinst)_ZZN9QMetaType21registerConverterImplI5QListIN17QtProtobufPrivate6QtCore5QTimeEE9QIterableI13QMetaSequenceEEEbSt8functionIFbPKvPvEES_S_E10unregister@Qt_6 6.6.0
 (optional=templinst)_ZZN9QMetaType21registerConverterImplI5QListIN17QtProtobufPrivate6QtCore5QUuidEE9QIterableI13QMetaSequenceEEEbSt8functionIFbPKvPvEES_S_E10unregister@Qt_6 6.6.0
 (optional=templinst)_ZZN9QMetaType21registerConverterImplI5QListIN17QtProtobufPrivate6QtCore6QPointEE9QIterableI13QMetaSequenceEEEbSt8functionIFbPKvPvEES_S_E10unregister@Qt_6 6.6.0
 (optional=templinst)_ZZN9QMetaType21registerConverterImplI5QListIN17QtProtobufPrivate6QtCore6QRectFEE9QIterableI13QMetaSequenceEEEbSt8functionIFbPKvPvEES_S_E10unregister@Qt_6 6.6.0
 (optional=templinst)_ZZN9QMetaType21registerConverterImplI5QListIN17QtProtobufPrivate6QtCore6QSizeFEE9QIterableI13QMetaSequenceEEEbSt8functionIFbPKvPvEES_S_E10unregister@Qt_6 6.6.0
 (optional=templinst)_ZZN9QMetaType21registerConverterImplI5QListIN17QtProtobufPrivate6QtCore7QPointFEE9QIterableI13QMetaSequenceEEEbSt8functionIFbPKvPvEES_S_E10unregister@Qt_6 6.6.0
 (optional=templinst)_ZZN9QMetaType21registerConverterImplI5QListIN17QtProtobufPrivate6QtCore9QDateTimeEE9QIterableI13QMetaSequenceEEEbSt8functionIFbPKvPvEES_S_E10unregister@Qt_6 6.6.0
 (optional=templinst)_ZZN9QMetaType21registerConverterImplI5QListIN17QtProtobufPrivate6QtCore9QTimeZone8TimeSpecEE9QIterableI13QMetaSequenceEEEbSt8functionIFbPKvPvEES_S_E10unregister@Qt_6 6.6.0
 (optional=templinst)_ZZN9QMetaType21registerConverterImplI5QListIN17QtProtobufPrivate6QtCore9QTimeZoneEE9QIterableI13QMetaSequenceEEEbSt8functionIFbPKvPvEES_S_E10unregister@Qt_6 6.6.0
 (optional=templinst)_ZZN9QMetaType23registerMutableViewImplI5QListIN10QtProtobuf18TransparentWrapperIiNS2_7int_tagEEEE9QIterableI13QMetaSequenceEEEbSt8functionIFbPvSB_EES_S_E10unregister@Qt_6 6.6.0
 (optional=templinst)_ZZN9QMetaType23registerMutableViewImplI5QListIN17QtProtobufPrivate6QtCore14QVersionNumberEE9QIterableI13QMetaSequenceEEEbSt8functionIFbPvSA_EES_S_E10unregister@Qt_6 6.6.0
 (optional=templinst)_ZZN9QMetaType23registerMutableViewImplI5QListIN17QtProtobufPrivate6QtCore4QUrlEE9QIterableI13QMetaSequenceEEEbSt8functionIFbPvSA_EES_S_E10unregister@Qt_6 6.6.0
 (optional=templinst)_ZZN9QMetaType23registerMutableViewImplI5QListIN17QtProtobufPrivate6QtCore5QCharEE9QIterableI13QMetaSequenceEEEbSt8functionIFbPvSA_EES_S_E10unregister@Qt_6 6.6.0
 (optional=templinst)_ZZN9QMetaType23registerMutableViewImplI5QListIN17QtProtobufPrivate6QtCore5QDateEE9QIterableI13QMetaSequenceEEEbSt8functionIFbPvSA_EES_S_E10unregister@Qt_6 6.6.0
 (optional=templinst)_ZZN9QMetaType23registerMutableViewImplI5QListIN17QtProtobufPrivate6QtCore5QRectEE9QIterableI13QMetaSequenceEEEbSt8functionIFbPvSA_EES_S_E10unregister@Qt_6 6.6.0
 (optional=templinst)_ZZN9QMetaType23registerMutableViewImplI5QListIN17QtProtobufPrivate6QtCore5QSizeEE9QIterableI13QMetaSequenceEEEbSt8functionIFbPvSA_EES_S_E10unregister@Qt_6 6.6.0
 (optional=templinst)_ZZN9QMetaType23registerMutableViewImplI5QListIN17QtProtobufPrivate6QtCore5QTimeEE9QIterableI13QMetaSequenceEEEbSt8functionIFbPvSA_EES_S_E10unregister@Qt_6 6.6.0
 (optional=templinst)_ZZN9QMetaType23registerMutableViewImplI5QListIN17QtProtobufPrivate6QtCore5QUuidEE9QIterableI13QMetaSequenceEEEbSt8functionIFbPvSA_EES_S_E10unregister@Qt_6 6.6.0
 (optional=templinst)_ZZN9QMetaType23registerMutableViewImplI5QListIN17QtProtobufPrivate6QtCore6QPointEE9QIterableI13QMetaSequenceEEEbSt8functionIFbPvSA_EES_S_E10unregister@Qt_6 6.6.0
 (optional=templinst)_ZZN9QMetaType23registerMutableViewImplI5QListIN17QtProtobufPrivate6QtCore6QRectFEE9QIterableI13QMetaSequenceEEEbSt8functionIFbPvSA_EES_S_E10unregister@Qt_6 6.6.0
 (optional=templinst)_ZZN9QMetaType23registerMutableViewImplI5QListIN17QtProtobufPrivate6QtCore6QSizeFEE9QIterableI13QMetaSequenceEEEbSt8functionIFbPvSA_EES_S_E10unregister@Qt_6 6.6.0
 (optional=templinst)_ZZN9QMetaType23registerMutableViewImplI5QListIN17QtProtobufPrivate6QtCore7QPointFEE9QIterableI13QMetaSequenceEEEbSt8functionIFbPvSA_EES_S_E10unregister@Qt_6 6.6.0
 (optional=templinst)_ZZN9QMetaType23registerMutableViewImplI5QListIN17QtProtobufPrivate6QtCore9QDateTimeEE9QIterableI13QMetaSequenceEEEbSt8functionIFbPvSA_EES_S_E10unregister@Qt_6 6.6.0
 (optional=templinst)_ZZN9QMetaType23registerMutableViewImplI5QListIN17QtProtobufPrivate6QtCore9QTimeZone8TimeSpecEE9QIterableI13QMetaSequenceEEEbSt8functionIFbPvSB_EES_S_E10unregister@Qt_6 6.6.0
 (optional=templinst)_ZZN9QMetaType23registerMutableViewImplI5QListIN17QtProtobufPrivate6QtCore9QTimeZoneEE9QIterableI13QMetaSequenceEEEbSt8functionIFbPvSA_EES_S_E10unregister@Qt_6 6.6.0
