# SymbolsHelper-Confirmed: 6.6.1 amd64 arm64 armel armhf i386 mips64el powerpc ppc64 ppc64el riscv64 s390x
libQt6Protobuf.so.6 libqt6protobuf6 #MINVER#
* Build-Depends-Package: qt6-grpc-dev
 Qt_6@Qt_6 6.6.0
 Qt_6_PRIVATE_API@Qt_6_PRIVATE_API 6.6.0
 _Z22qRegisterProtobufTypesv@Qt_6 6.6.0
 _Z44qRegisterNormalizedMetaType_QtProtobuf_int32RK10QByteArray@Qt_6 6.6.0
 _Z44qRegisterNormalizedMetaType_QtProtobuf_int64RK10QByteArray@Qt_6 6.6.0
 _Z46qRegisterNormalizedMetaType_QtProtobuf_fixed32RK10QByteArray@Qt_6 6.6.0
 _Z46qRegisterNormalizedMetaType_QtProtobuf_fixed64RK10QByteArray@Qt_6 6.6.0
 _Z47qRegisterNormalizedMetaType_QtProtobuf_sfixed32RK10QByteArray@Qt_6 6.6.0
 _Z47qRegisterNormalizedMetaType_QtProtobuf_sfixed64RK10QByteArray@Qt_6 6.6.0
 _Z8Protobufv@Qt_6 6.6.0
 _ZGVZN9QMetaType21registerConverterImplI5QListIN10QtProtobuf18TransparentWrapperIiNS2_7int_tagEEEE9QIterableI13QMetaSequenceEEEbSt8functionIFbPKvPvEES_S_E10unregister@Qt_6 6.6.0
 _ZGVZN9QMetaType21registerConverterImplI5QListIN10QtProtobuf18TransparentWrapperIiNS2_9fixed_tagEEEE9QIterableI13QMetaSequenceEEEbSt8functionIFbPKvPvEES_S_E10unregister@Qt_6 6.6.0
 _ZGVZN9QMetaType21registerConverterImplI5QListIN10QtProtobuf18TransparentWrapperIjNS2_9fixed_tagEEEE9QIterableI13QMetaSequenceEEEbSt8functionIFbPKvPvEES_S_E10unregister@Qt_6 6.6.0
 (subst)_ZGVZN9QMetaType21registerConverterImplI5QListIN10QtProtobuf18TransparentWrapperI{int64_t}NS2_7int_tagEEEE9QIterableI13QMetaSequenceEEEbSt8functionIFbPKvPvEES_S_E10unregister@Qt_6 6.6.0
 (subst)_ZGVZN9QMetaType21registerConverterImplI5QListIN10QtProtobuf18TransparentWrapperI{int64_t}NS2_9fixed_tagEEEE9QIterableI13QMetaSequenceEEEbSt8functionIFbPKvPvEES_S_E10unregister@Qt_6 6.6.0
 (subst)_ZGVZN9QMetaType21registerConverterImplI5QListIN10QtProtobuf18TransparentWrapperI{uint64_t}NS2_9fixed_tagEEEE9QIterableI13QMetaSequenceEEEbSt8functionIFbPKvPvEES_S_E10unregister@Qt_6 6.6.0
 _ZGVZN9QMetaType21registerConverterImplI5QListIbE9QIterableI13QMetaSequenceEEEbSt8functionIFbPKvPvEES_S_E10unregister@Qt_6 6.6.0
 _ZGVZN9QMetaType21registerConverterImplI5QListIdE9QIterableI13QMetaSequenceEEEbSt8functionIFbPKvPvEES_S_E10unregister@Qt_6 6.6.0
 _ZGVZN9QMetaType21registerConverterImplI5QListIfE9QIterableI13QMetaSequenceEEEbSt8functionIFbPKvPvEES_S_E10unregister@Qt_6 6.6.0
 _ZGVZN9QMetaType21registerConverterImplI5QListIiE9QIterableI13QMetaSequenceEEEbSt8functionIFbPKvPvEES_S_E10unregister@Qt_6 6.6.0
 _ZGVZN9QMetaType21registerConverterImplI5QListIjE9QIterableI13QMetaSequenceEEEbSt8functionIFbPKvPvEES_S_E10unregister@Qt_6 6.6.0
 (subst)_ZGVZN9QMetaType21registerConverterImplI5QListI{int64_t}E9QIterableI13QMetaSequenceEEEbSt8functionIFbPKvPvEES_S_E10unregister@Qt_6 6.6.0
 (subst)_ZGVZN9QMetaType21registerConverterImplI5QListI{uint64_t}E9QIterableI13QMetaSequenceEEEbSt8functionIFbPKvPvEES_S_E10unregister@Qt_6 6.6.0
 _ZGVZN9QMetaType21registerConverterImplIN10QtProtobuf18TransparentWrapperIiNS1_7int_tagEEE7QStringEEbSt8functionIFbPKvPvEES_S_E10unregister@Qt_6 6.6.0
 _ZGVZN9QMetaType21registerConverterImplIN10QtProtobuf18TransparentWrapperIiNS1_7int_tagEEEdEEbSt8functionIFbPKvPvEES_S_E10unregister@Qt_6 6.6.0
 _ZGVZN9QMetaType21registerConverterImplIN10QtProtobuf18TransparentWrapperIiNS1_7int_tagEEEiEEbSt8functionIFbPKvPvEES_S_E10unregister@Qt_6 6.6.0
 _ZGVZN9QMetaType21registerConverterImplIN10QtProtobuf18TransparentWrapperIiNS1_7int_tagEEEjEEbSt8functionIFbPKvPvEES_S_E10unregister@Qt_6 6.6.0
 (arch=!armel !armhf !i386 !powerpc)_ZGVZN9QMetaType21registerConverterImplIN10QtProtobuf18TransparentWrapperIiNS1_7int_tagEEElEEbSt8functionIFbPKvPvEES_S_E10unregister@Qt_6 6.6.1
 (arch=!armel !armhf !i386 !powerpc)_ZGVZN9QMetaType21registerConverterImplIN10QtProtobuf18TransparentWrapperIiNS1_7int_tagEEEmEEbSt8functionIFbPKvPvEES_S_E10unregister@Qt_6 6.6.1
 _ZGVZN9QMetaType21registerConverterImplIN10QtProtobuf18TransparentWrapperIiNS1_7int_tagEEExEEbSt8functionIFbPKvPvEES_S_E10unregister@Qt_6 6.6.0
 _ZGVZN9QMetaType21registerConverterImplIN10QtProtobuf18TransparentWrapperIiNS1_7int_tagEEEyEEbSt8functionIFbPKvPvEES_S_E10unregister@Qt_6 6.6.0
 _ZGVZN9QMetaType21registerConverterImplIN10QtProtobuf18TransparentWrapperIiNS1_9fixed_tagEEE7QStringEEbSt8functionIFbPKvPvEES_S_E10unregister@Qt_6 6.6.0
 _ZGVZN9QMetaType21registerConverterImplIN10QtProtobuf18TransparentWrapperIiNS1_9fixed_tagEEEdEEbSt8functionIFbPKvPvEES_S_E10unregister@Qt_6 6.6.0
 _ZGVZN9QMetaType21registerConverterImplIN10QtProtobuf18TransparentWrapperIiNS1_9fixed_tagEEEiEEbSt8functionIFbPKvPvEES_S_E10unregister@Qt_6 6.6.0
 _ZGVZN9QMetaType21registerConverterImplIN10QtProtobuf18TransparentWrapperIiNS1_9fixed_tagEEEjEEbSt8functionIFbPKvPvEES_S_E10unregister@Qt_6 6.6.0
 (arch=!armel !armhf !i386 !powerpc)_ZGVZN9QMetaType21registerConverterImplIN10QtProtobuf18TransparentWrapperIiNS1_9fixed_tagEEElEEbSt8functionIFbPKvPvEES_S_E10unregister@Qt_6 6.6.1
 (arch=!armel !armhf !i386 !powerpc)_ZGVZN9QMetaType21registerConverterImplIN10QtProtobuf18TransparentWrapperIiNS1_9fixed_tagEEEmEEbSt8functionIFbPKvPvEES_S_E10unregister@Qt_6 6.6.1
 _ZGVZN9QMetaType21registerConverterImplIN10QtProtobuf18TransparentWrapperIiNS1_9fixed_tagEEExEEbSt8functionIFbPKvPvEES_S_E10unregister@Qt_6 6.6.0
 _ZGVZN9QMetaType21registerConverterImplIN10QtProtobuf18TransparentWrapperIiNS1_9fixed_tagEEEyEEbSt8functionIFbPKvPvEES_S_E10unregister@Qt_6 6.6.0
 _ZGVZN9QMetaType21registerConverterImplIN10QtProtobuf18TransparentWrapperIjNS1_9fixed_tagEEE7QStringEEbSt8functionIFbPKvPvEES_S_E10unregister@Qt_6 6.6.0
 _ZGVZN9QMetaType21registerConverterImplIN10QtProtobuf18TransparentWrapperIjNS1_9fixed_tagEEEdEEbSt8functionIFbPKvPvEES_S_E10unregister@Qt_6 6.6.0
 _ZGVZN9QMetaType21registerConverterImplIN10QtProtobuf18TransparentWrapperIjNS1_9fixed_tagEEEiEEbSt8functionIFbPKvPvEES_S_E10unregister@Qt_6 6.6.0
 _ZGVZN9QMetaType21registerConverterImplIN10QtProtobuf18TransparentWrapperIjNS1_9fixed_tagEEEjEEbSt8functionIFbPKvPvEES_S_E10unregister@Qt_6 6.6.0
 (arch=!armel !armhf !i386 !powerpc)_ZGVZN9QMetaType21registerConverterImplIN10QtProtobuf18TransparentWrapperIjNS1_9fixed_tagEEElEEbSt8functionIFbPKvPvEES_S_E10unregister@Qt_6 6.6.1
 (arch=!armel !armhf !i386 !powerpc)_ZGVZN9QMetaType21registerConverterImplIN10QtProtobuf18TransparentWrapperIjNS1_9fixed_tagEEEmEEbSt8functionIFbPKvPvEES_S_E10unregister@Qt_6 6.6.1
 _ZGVZN9QMetaType21registerConverterImplIN10QtProtobuf18TransparentWrapperIjNS1_9fixed_tagEEExEEbSt8functionIFbPKvPvEES_S_E10unregister@Qt_6 6.6.0
 _ZGVZN9QMetaType21registerConverterImplIN10QtProtobuf18TransparentWrapperIjNS1_9fixed_tagEEEyEEbSt8functionIFbPKvPvEES_S_E10unregister@Qt_6 6.6.0
 (arch=!armel !armhf !i386 !powerpc)_ZGVZN9QMetaType21registerConverterImplIN10QtProtobuf18TransparentWrapperIlNS1_7int_tagEEEiEEbSt8functionIFbPKvPvEES_S_E10unregister@Qt_6 6.6.1
 (arch=!armel !armhf !i386 !powerpc)_ZGVZN9QMetaType21registerConverterImplIN10QtProtobuf18TransparentWrapperIlNS1_7int_tagEEEjEEbSt8functionIFbPKvPvEES_S_E10unregister@Qt_6 6.6.1
 (arch=!armel !armhf !i386 !powerpc)_ZGVZN9QMetaType21registerConverterImplIN10QtProtobuf18TransparentWrapperIlNS1_7int_tagEEElEEbSt8functionIFbPKvPvEES_S_E10unregister@Qt_6 6.6.1
 (arch=!armel !armhf !i386 !powerpc)_ZGVZN9QMetaType21registerConverterImplIN10QtProtobuf18TransparentWrapperIlNS1_7int_tagEEEmEEbSt8functionIFbPKvPvEES_S_E10unregister@Qt_6 6.6.1
 (arch=!armel !armhf !i386 !powerpc)_ZGVZN9QMetaType21registerConverterImplIN10QtProtobuf18TransparentWrapperIlNS1_7int_tagEEExEEbSt8functionIFbPKvPvEES_S_E10unregister@Qt_6 6.6.1
 (arch=!armel !armhf !i386 !powerpc)_ZGVZN9QMetaType21registerConverterImplIN10QtProtobuf18TransparentWrapperIlNS1_7int_tagEEEyEEbSt8functionIFbPKvPvEES_S_E10unregister@Qt_6 6.6.1
 (arch=!armel !armhf !i386 !powerpc)_ZGVZN9QMetaType21registerConverterImplIN10QtProtobuf18TransparentWrapperIlNS1_9fixed_tagEEEiEEbSt8functionIFbPKvPvEES_S_E10unregister@Qt_6 6.6.1
 (arch=!armel !armhf !i386 !powerpc)_ZGVZN9QMetaType21registerConverterImplIN10QtProtobuf18TransparentWrapperIlNS1_9fixed_tagEEEjEEbSt8functionIFbPKvPvEES_S_E10unregister@Qt_6 6.6.1
 (arch=!armel !armhf !i386 !powerpc)_ZGVZN9QMetaType21registerConverterImplIN10QtProtobuf18TransparentWrapperIlNS1_9fixed_tagEEElEEbSt8functionIFbPKvPvEES_S_E10unregister@Qt_6 6.6.1
 (arch=!armel !armhf !i386 !powerpc)_ZGVZN9QMetaType21registerConverterImplIN10QtProtobuf18TransparentWrapperIlNS1_9fixed_tagEEEmEEbSt8functionIFbPKvPvEES_S_E10unregister@Qt_6 6.6.1
 (arch=!armel !armhf !i386 !powerpc)_ZGVZN9QMetaType21registerConverterImplIN10QtProtobuf18TransparentWrapperIlNS1_9fixed_tagEEExEEbSt8functionIFbPKvPvEES_S_E10unregister@Qt_6 6.6.1
 (arch=!armel !armhf !i386 !powerpc)_ZGVZN9QMetaType21registerConverterImplIN10QtProtobuf18TransparentWrapperIlNS1_9fixed_tagEEEyEEbSt8functionIFbPKvPvEES_S_E10unregister@Qt_6 6.6.1
 (arch=!armel !armhf !i386 !powerpc)_ZGVZN9QMetaType21registerConverterImplIN10QtProtobuf18TransparentWrapperImNS1_9fixed_tagEEEiEEbSt8functionIFbPKvPvEES_S_E10unregister@Qt_6 6.6.1
 (arch=!armel !armhf !i386 !powerpc)_ZGVZN9QMetaType21registerConverterImplIN10QtProtobuf18TransparentWrapperImNS1_9fixed_tagEEEjEEbSt8functionIFbPKvPvEES_S_E10unregister@Qt_6 6.6.1
 (arch=!armel !armhf !i386 !powerpc)_ZGVZN9QMetaType21registerConverterImplIN10QtProtobuf18TransparentWrapperImNS1_9fixed_tagEEElEEbSt8functionIFbPKvPvEES_S_E10unregister@Qt_6 6.6.1
 (arch=!armel !armhf !i386 !powerpc)_ZGVZN9QMetaType21registerConverterImplIN10QtProtobuf18TransparentWrapperImNS1_9fixed_tagEEEmEEbSt8functionIFbPKvPvEES_S_E10unregister@Qt_6 6.6.1
 (arch=!armel !armhf !i386 !powerpc)_ZGVZN9QMetaType21registerConverterImplIN10QtProtobuf18TransparentWrapperImNS1_9fixed_tagEEExEEbSt8functionIFbPKvPvEES_S_E10unregister@Qt_6 6.6.1
 (arch=!armel !armhf !i386 !powerpc)_ZGVZN9QMetaType21registerConverterImplIN10QtProtobuf18TransparentWrapperImNS1_9fixed_tagEEEyEEbSt8functionIFbPKvPvEES_S_E10unregister@Qt_6 6.6.1
 (arch=armel armhf i386 powerpc)_ZGVZN9QMetaType21registerConverterImplIN10QtProtobuf18TransparentWrapperIxNS1_7int_tagEEEiEEbSt8functionIFbPKvPvEES_S_E10unregister@Qt_6 6.6.1
 (arch=armel armhf i386 powerpc)_ZGVZN9QMetaType21registerConverterImplIN10QtProtobuf18TransparentWrapperIxNS1_7int_tagEEEjEEbSt8functionIFbPKvPvEES_S_E10unregister@Qt_6 6.6.1
 (arch=armel armhf i386 powerpc)_ZGVZN9QMetaType21registerConverterImplIN10QtProtobuf18TransparentWrapperIxNS1_7int_tagEEExEEbSt8functionIFbPKvPvEES_S_E10unregister@Qt_6 6.6.1
 (arch=armel armhf i386 powerpc)_ZGVZN9QMetaType21registerConverterImplIN10QtProtobuf18TransparentWrapperIxNS1_7int_tagEEEyEEbSt8functionIFbPKvPvEES_S_E10unregister@Qt_6 6.6.1
 (arch=armel armhf i386 powerpc)_ZGVZN9QMetaType21registerConverterImplIN10QtProtobuf18TransparentWrapperIxNS1_9fixed_tagEEEiEEbSt8functionIFbPKvPvEES_S_E10unregister@Qt_6 6.6.1
 (arch=armel armhf i386 powerpc)_ZGVZN9QMetaType21registerConverterImplIN10QtProtobuf18TransparentWrapperIxNS1_9fixed_tagEEEjEEbSt8functionIFbPKvPvEES_S_E10unregister@Qt_6 6.6.1
 (arch=armel armhf i386 powerpc)_ZGVZN9QMetaType21registerConverterImplIN10QtProtobuf18TransparentWrapperIxNS1_9fixed_tagEEExEEbSt8functionIFbPKvPvEES_S_E10unregister@Qt_6 6.6.1
 (arch=armel armhf i386 powerpc)_ZGVZN9QMetaType21registerConverterImplIN10QtProtobuf18TransparentWrapperIxNS1_9fixed_tagEEEyEEbSt8functionIFbPKvPvEES_S_E10unregister@Qt_6 6.6.1
 (arch=armel armhf i386 powerpc)_ZGVZN9QMetaType21registerConverterImplIN10QtProtobuf18TransparentWrapperIyNS1_9fixed_tagEEEiEEbSt8functionIFbPKvPvEES_S_E10unregister@Qt_6 6.6.1
 (arch=armel armhf i386 powerpc)_ZGVZN9QMetaType21registerConverterImplIN10QtProtobuf18TransparentWrapperIyNS1_9fixed_tagEEEjEEbSt8functionIFbPKvPvEES_S_E10unregister@Qt_6 6.6.1
 (arch=armel armhf i386 powerpc)_ZGVZN9QMetaType21registerConverterImplIN10QtProtobuf18TransparentWrapperIyNS1_9fixed_tagEEExEEbSt8functionIFbPKvPvEES_S_E10unregister@Qt_6 6.6.1
 (arch=armel armhf i386 powerpc)_ZGVZN9QMetaType21registerConverterImplIN10QtProtobuf18TransparentWrapperIyNS1_9fixed_tagEEEyEEbSt8functionIFbPKvPvEES_S_E10unregister@Qt_6 6.6.1
 (subst)_ZGVZN9QMetaType21registerConverterImplIN10QtProtobuf18TransparentWrapperI{int64_t}NS1_7int_tagEEE7QStringEEbSt8functionIFbPKvPvEES_S_E10unregister@Qt_6 6.6.0
 (subst)_ZGVZN9QMetaType21registerConverterImplIN10QtProtobuf18TransparentWrapperI{int64_t}NS1_7int_tagEEEdEEbSt8functionIFbPKvPvEES_S_E10unregister@Qt_6 6.6.0
 (subst)_ZGVZN9QMetaType21registerConverterImplIN10QtProtobuf18TransparentWrapperI{int64_t}NS1_9fixed_tagEEE7QStringEEbSt8functionIFbPKvPvEES_S_E10unregister@Qt_6 6.6.0
 (subst)_ZGVZN9QMetaType21registerConverterImplIN10QtProtobuf18TransparentWrapperI{int64_t}NS1_9fixed_tagEEEdEEbSt8functionIFbPKvPvEES_S_E10unregister@Qt_6 6.6.0
 (subst)_ZGVZN9QMetaType21registerConverterImplIN10QtProtobuf18TransparentWrapperI{uint64_t}NS1_9fixed_tagEEE7QStringEEbSt8functionIFbPKvPvEES_S_E10unregister@Qt_6 6.6.0
 (subst)_ZGVZN9QMetaType21registerConverterImplIN10QtProtobuf18TransparentWrapperI{uint64_t}NS1_9fixed_tagEEEdEEbSt8functionIFbPKvPvEES_S_E10unregister@Qt_6 6.6.0
 _ZGVZN9QMetaType21registerConverterImplIdN10QtProtobuf18TransparentWrapperIiNS1_7int_tagEEEEEbSt8functionIFbPKvPvEES_S_E10unregister@Qt_6 6.6.0
 _ZGVZN9QMetaType21registerConverterImplIdN10QtProtobuf18TransparentWrapperIiNS1_9fixed_tagEEEEEbSt8functionIFbPKvPvEES_S_E10unregister@Qt_6 6.6.0
 _ZGVZN9QMetaType21registerConverterImplIdN10QtProtobuf18TransparentWrapperIjNS1_9fixed_tagEEEEEbSt8functionIFbPKvPvEES_S_E10unregister@Qt_6 6.6.0
 (subst)_ZGVZN9QMetaType21registerConverterImplIdN10QtProtobuf18TransparentWrapperI{int64_t}NS1_7int_tagEEEEEbSt8functionIFbPKvPvEES_S_E10unregister@Qt_6 6.6.0
 (subst)_ZGVZN9QMetaType21registerConverterImplIdN10QtProtobuf18TransparentWrapperI{int64_t}NS1_9fixed_tagEEEEEbSt8functionIFbPKvPvEES_S_E10unregister@Qt_6 6.6.0
 (subst)_ZGVZN9QMetaType21registerConverterImplIdN10QtProtobuf18TransparentWrapperI{uint64_t}NS1_9fixed_tagEEEEEbSt8functionIFbPKvPvEES_S_E10unregister@Qt_6 6.6.0
 _ZGVZN9QMetaType21registerConverterImplIiN10QtProtobuf18TransparentWrapperIiNS1_7int_tagEEEEEbSt8functionIFbPKvPvEES_S_E10unregister@Qt_6 6.6.0
 _ZGVZN9QMetaType21registerConverterImplIiN10QtProtobuf18TransparentWrapperIiNS1_9fixed_tagEEEEEbSt8functionIFbPKvPvEES_S_E10unregister@Qt_6 6.6.0
 _ZGVZN9QMetaType21registerConverterImplIiN10QtProtobuf18TransparentWrapperIjNS1_9fixed_tagEEEEEbSt8functionIFbPKvPvEES_S_E10unregister@Qt_6 6.6.0
 (arch=!armel !armhf !i386 !powerpc)_ZGVZN9QMetaType21registerConverterImplIiN10QtProtobuf18TransparentWrapperIlNS1_7int_tagEEEEEbSt8functionIFbPKvPvEES_S_E10unregister@Qt_6 6.6.1
 (arch=!armel !armhf !i386 !powerpc)_ZGVZN9QMetaType21registerConverterImplIiN10QtProtobuf18TransparentWrapperIlNS1_9fixed_tagEEEEEbSt8functionIFbPKvPvEES_S_E10unregister@Qt_6 6.6.1
 (arch=!armel !armhf !i386 !powerpc)_ZGVZN9QMetaType21registerConverterImplIiN10QtProtobuf18TransparentWrapperImNS1_9fixed_tagEEEEEbSt8functionIFbPKvPvEES_S_E10unregister@Qt_6 6.6.1
 (arch=armel armhf i386 powerpc)_ZGVZN9QMetaType21registerConverterImplIiN10QtProtobuf18TransparentWrapperIxNS1_7int_tagEEEEEbSt8functionIFbPKvPvEES_S_E10unregister@Qt_6 6.6.1
 (arch=armel armhf i386 powerpc)_ZGVZN9QMetaType21registerConverterImplIiN10QtProtobuf18TransparentWrapperIxNS1_9fixed_tagEEEEEbSt8functionIFbPKvPvEES_S_E10unregister@Qt_6 6.6.1
 (arch=armel armhf i386 powerpc)_ZGVZN9QMetaType21registerConverterImplIiN10QtProtobuf18TransparentWrapperIyNS1_9fixed_tagEEEEEbSt8functionIFbPKvPvEES_S_E10unregister@Qt_6 6.6.1
 _ZGVZN9QMetaType21registerConverterImplIjN10QtProtobuf18TransparentWrapperIiNS1_7int_tagEEEEEbSt8functionIFbPKvPvEES_S_E10unregister@Qt_6 6.6.0
 _ZGVZN9QMetaType21registerConverterImplIjN10QtProtobuf18TransparentWrapperIiNS1_9fixed_tagEEEEEbSt8functionIFbPKvPvEES_S_E10unregister@Qt_6 6.6.0
 _ZGVZN9QMetaType21registerConverterImplIjN10QtProtobuf18TransparentWrapperIjNS1_9fixed_tagEEEEEbSt8functionIFbPKvPvEES_S_E10unregister@Qt_6 6.6.0
 (arch=!armel !armhf !i386 !powerpc)_ZGVZN9QMetaType21registerConverterImplIjN10QtProtobuf18TransparentWrapperIlNS1_7int_tagEEEEEbSt8functionIFbPKvPvEES_S_E10unregister@Qt_6 6.6.1
 (arch=!armel !armhf !i386 !powerpc)_ZGVZN9QMetaType21registerConverterImplIjN10QtProtobuf18TransparentWrapperIlNS1_9fixed_tagEEEEEbSt8functionIFbPKvPvEES_S_E10unregister@Qt_6 6.6.1
 (arch=!armel !armhf !i386 !powerpc)_ZGVZN9QMetaType21registerConverterImplIjN10QtProtobuf18TransparentWrapperImNS1_9fixed_tagEEEEEbSt8functionIFbPKvPvEES_S_E10unregister@Qt_6 6.6.1
 (arch=armel armhf i386 powerpc)_ZGVZN9QMetaType21registerConverterImplIjN10QtProtobuf18TransparentWrapperIxNS1_7int_tagEEEEEbSt8functionIFbPKvPvEES_S_E10unregister@Qt_6 6.6.1
 (arch=armel armhf i386 powerpc)_ZGVZN9QMetaType21registerConverterImplIjN10QtProtobuf18TransparentWrapperIxNS1_9fixed_tagEEEEEbSt8functionIFbPKvPvEES_S_E10unregister@Qt_6 6.6.1
 (arch=armel armhf i386 powerpc)_ZGVZN9QMetaType21registerConverterImplIjN10QtProtobuf18TransparentWrapperIyNS1_9fixed_tagEEEEEbSt8functionIFbPKvPvEES_S_E10unregister@Qt_6 6.6.1
 (arch=!armel !armhf !i386 !powerpc)_ZGVZN9QMetaType21registerConverterImplIlN10QtProtobuf18TransparentWrapperIiNS1_7int_tagEEEEEbSt8functionIFbPKvPvEES_S_E10unregister@Qt_6 6.6.1
 (arch=!armel !armhf !i386 !powerpc)_ZGVZN9QMetaType21registerConverterImplIlN10QtProtobuf18TransparentWrapperIiNS1_9fixed_tagEEEEEbSt8functionIFbPKvPvEES_S_E10unregister@Qt_6 6.6.1
 (arch=!armel !armhf !i386 !powerpc)_ZGVZN9QMetaType21registerConverterImplIlN10QtProtobuf18TransparentWrapperIjNS1_9fixed_tagEEEEEbSt8functionIFbPKvPvEES_S_E10unregister@Qt_6 6.6.1
 (arch=!armel !armhf !i386 !powerpc)_ZGVZN9QMetaType21registerConverterImplIlN10QtProtobuf18TransparentWrapperIlNS1_7int_tagEEEEEbSt8functionIFbPKvPvEES_S_E10unregister@Qt_6 6.6.1
 (arch=!armel !armhf !i386 !powerpc)_ZGVZN9QMetaType21registerConverterImplIlN10QtProtobuf18TransparentWrapperIlNS1_9fixed_tagEEEEEbSt8functionIFbPKvPvEES_S_E10unregister@Qt_6 6.6.1
 (arch=!armel !armhf !i386 !powerpc)_ZGVZN9QMetaType21registerConverterImplIlN10QtProtobuf18TransparentWrapperImNS1_9fixed_tagEEEEEbSt8functionIFbPKvPvEES_S_E10unregister@Qt_6 6.6.1
 (arch=!armel !armhf !i386 !powerpc)_ZGVZN9QMetaType21registerConverterImplImN10QtProtobuf18TransparentWrapperIiNS1_7int_tagEEEEEbSt8functionIFbPKvPvEES_S_E10unregister@Qt_6 6.6.1
 (arch=!armel !armhf !i386 !powerpc)_ZGVZN9QMetaType21registerConverterImplImN10QtProtobuf18TransparentWrapperIiNS1_9fixed_tagEEEEEbSt8functionIFbPKvPvEES_S_E10unregister@Qt_6 6.6.1
 (arch=!armel !armhf !i386 !powerpc)_ZGVZN9QMetaType21registerConverterImplImN10QtProtobuf18TransparentWrapperIjNS1_9fixed_tagEEEEEbSt8functionIFbPKvPvEES_S_E10unregister@Qt_6 6.6.1
 (arch=!armel !armhf !i386 !powerpc)_ZGVZN9QMetaType21registerConverterImplImN10QtProtobuf18TransparentWrapperIlNS1_7int_tagEEEEEbSt8functionIFbPKvPvEES_S_E10unregister@Qt_6 6.6.1
 (arch=!armel !armhf !i386 !powerpc)_ZGVZN9QMetaType21registerConverterImplImN10QtProtobuf18TransparentWrapperIlNS1_9fixed_tagEEEEEbSt8functionIFbPKvPvEES_S_E10unregister@Qt_6 6.6.1
 (arch=!armel !armhf !i386 !powerpc)_ZGVZN9QMetaType21registerConverterImplImN10QtProtobuf18TransparentWrapperImNS1_9fixed_tagEEEEEbSt8functionIFbPKvPvEES_S_E10unregister@Qt_6 6.6.1
 _ZGVZN9QMetaType21registerConverterImplIxN10QtProtobuf18TransparentWrapperIiNS1_7int_tagEEEEEbSt8functionIFbPKvPvEES_S_E10unregister@Qt_6 6.6.0
 _ZGVZN9QMetaType21registerConverterImplIxN10QtProtobuf18TransparentWrapperIiNS1_9fixed_tagEEEEEbSt8functionIFbPKvPvEES_S_E10unregister@Qt_6 6.6.0
 _ZGVZN9QMetaType21registerConverterImplIxN10QtProtobuf18TransparentWrapperIjNS1_9fixed_tagEEEEEbSt8functionIFbPKvPvEES_S_E10unregister@Qt_6 6.6.0
 (arch=!armel !armhf !i386 !powerpc)_ZGVZN9QMetaType21registerConverterImplIxN10QtProtobuf18TransparentWrapperIlNS1_7int_tagEEEEEbSt8functionIFbPKvPvEES_S_E10unregister@Qt_6 6.6.1
 (arch=!armel !armhf !i386 !powerpc)_ZGVZN9QMetaType21registerConverterImplIxN10QtProtobuf18TransparentWrapperIlNS1_9fixed_tagEEEEEbSt8functionIFbPKvPvEES_S_E10unregister@Qt_6 6.6.1
 (arch=!armel !armhf !i386 !powerpc)_ZGVZN9QMetaType21registerConverterImplIxN10QtProtobuf18TransparentWrapperImNS1_9fixed_tagEEEEEbSt8functionIFbPKvPvEES_S_E10unregister@Qt_6 6.6.1
 (arch=armel armhf i386 powerpc)_ZGVZN9QMetaType21registerConverterImplIxN10QtProtobuf18TransparentWrapperIxNS1_7int_tagEEEEEbSt8functionIFbPKvPvEES_S_E10unregister@Qt_6 6.6.1
 (arch=armel armhf i386 powerpc)_ZGVZN9QMetaType21registerConverterImplIxN10QtProtobuf18TransparentWrapperIxNS1_9fixed_tagEEEEEbSt8functionIFbPKvPvEES_S_E10unregister@Qt_6 6.6.1
 (arch=armel armhf i386 powerpc)_ZGVZN9QMetaType21registerConverterImplIxN10QtProtobuf18TransparentWrapperIyNS1_9fixed_tagEEEEEbSt8functionIFbPKvPvEES_S_E10unregister@Qt_6 6.6.1
 _ZGVZN9QMetaType21registerConverterImplIyN10QtProtobuf18TransparentWrapperIiNS1_7int_tagEEEEEbSt8functionIFbPKvPvEES_S_E10unregister@Qt_6 6.6.0
 _ZGVZN9QMetaType21registerConverterImplIyN10QtProtobuf18TransparentWrapperIiNS1_9fixed_tagEEEEEbSt8functionIFbPKvPvEES_S_E10unregister@Qt_6 6.6.0
 _ZGVZN9QMetaType21registerConverterImplIyN10QtProtobuf18TransparentWrapperIjNS1_9fixed_tagEEEEEbSt8functionIFbPKvPvEES_S_E10unregister@Qt_6 6.6.0
 (arch=!armel !armhf !i386 !powerpc)_ZGVZN9QMetaType21registerConverterImplIyN10QtProtobuf18TransparentWrapperIlNS1_7int_tagEEEEEbSt8functionIFbPKvPvEES_S_E10unregister@Qt_6 6.6.1
 (arch=!armel !armhf !i386 !powerpc)_ZGVZN9QMetaType21registerConverterImplIyN10QtProtobuf18TransparentWrapperIlNS1_9fixed_tagEEEEEbSt8functionIFbPKvPvEES_S_E10unregister@Qt_6 6.6.1
 (arch=!armel !armhf !i386 !powerpc)_ZGVZN9QMetaType21registerConverterImplIyN10QtProtobuf18TransparentWrapperImNS1_9fixed_tagEEEEEbSt8functionIFbPKvPvEES_S_E10unregister@Qt_6 6.6.1
 (arch=armel armhf i386 powerpc)_ZGVZN9QMetaType21registerConverterImplIyN10QtProtobuf18TransparentWrapperIxNS1_7int_tagEEEEEbSt8functionIFbPKvPvEES_S_E10unregister@Qt_6 6.6.1
 (arch=armel armhf i386 powerpc)_ZGVZN9QMetaType21registerConverterImplIyN10QtProtobuf18TransparentWrapperIxNS1_9fixed_tagEEEEEbSt8functionIFbPKvPvEES_S_E10unregister@Qt_6 6.6.1
 (arch=armel armhf i386 powerpc)_ZGVZN9QMetaType21registerConverterImplIyN10QtProtobuf18TransparentWrapperIyNS1_9fixed_tagEEEEEbSt8functionIFbPKvPvEES_S_E10unregister@Qt_6 6.6.1
 _ZGVZN9QMetaType23registerMutableViewImplI5QListIN10QtProtobuf18TransparentWrapperIiNS2_7int_tagEEEE9QIterableI13QMetaSequenceEEEbSt8functionIFbPvSB_EES_S_E10unregister@Qt_6 6.6.0
 _ZGVZN9QMetaType23registerMutableViewImplI5QListIN10QtProtobuf18TransparentWrapperIiNS2_9fixed_tagEEEE9QIterableI13QMetaSequenceEEEbSt8functionIFbPvSB_EES_S_E10unregister@Qt_6 6.6.0
 _ZGVZN9QMetaType23registerMutableViewImplI5QListIN10QtProtobuf18TransparentWrapperIjNS2_9fixed_tagEEEE9QIterableI13QMetaSequenceEEEbSt8functionIFbPvSB_EES_S_E10unregister@Qt_6 6.6.0
 (subst)_ZGVZN9QMetaType23registerMutableViewImplI5QListIN10QtProtobuf18TransparentWrapperI{int64_t}NS2_7int_tagEEEE9QIterableI13QMetaSequenceEEEbSt8functionIFbPvSB_EES_S_E10unregister@Qt_6 6.6.0
 (subst)_ZGVZN9QMetaType23registerMutableViewImplI5QListIN10QtProtobuf18TransparentWrapperI{int64_t}NS2_9fixed_tagEEEE9QIterableI13QMetaSequenceEEEbSt8functionIFbPvSB_EES_S_E10unregister@Qt_6 6.6.0
 (subst)_ZGVZN9QMetaType23registerMutableViewImplI5QListIN10QtProtobuf18TransparentWrapperI{uint64_t}NS2_9fixed_tagEEEE9QIterableI13QMetaSequenceEEEbSt8functionIFbPvSB_EES_S_E10unregister@Qt_6 6.6.0
 _ZGVZN9QMetaType23registerMutableViewImplI5QListIbE9QIterableI13QMetaSequenceEEEbSt8functionIFbPvS7_EES_S_E10unregister@Qt_6 6.6.0
 _ZGVZN9QMetaType23registerMutableViewImplI5QListIdE9QIterableI13QMetaSequenceEEEbSt8functionIFbPvS7_EES_S_E10unregister@Qt_6 6.6.0
 _ZGVZN9QMetaType23registerMutableViewImplI5QListIfE9QIterableI13QMetaSequenceEEEbSt8functionIFbPvS7_EES_S_E10unregister@Qt_6 6.6.0
 _ZGVZN9QMetaType23registerMutableViewImplI5QListIiE9QIterableI13QMetaSequenceEEEbSt8functionIFbPvS7_EES_S_E10unregister@Qt_6 6.6.0
 _ZGVZN9QMetaType23registerMutableViewImplI5QListIjE9QIterableI13QMetaSequenceEEEbSt8functionIFbPvS7_EES_S_E10unregister@Qt_6 6.6.0
 (subst)_ZGVZN9QMetaType23registerMutableViewImplI5QListI{int64_t}E9QIterableI13QMetaSequenceEEEbSt8functionIFbPvS7_EES_S_E10unregister@Qt_6 6.6.0
 (subst)_ZGVZN9QMetaType23registerMutableViewImplI5QListI{uint64_t}E9QIterableI13QMetaSequenceEEEbSt8functionIFbPvS7_EES_S_E10unregister@Qt_6 6.6.0
 _ZN10QtProtobuf16staticMetaObjectE@Qt_6 6.6.0
 _ZN10QtProtobuf18ProtoTypeRegistrarC1EPFvvE@Qt_6 6.6.0
 _ZN10QtProtobuf18ProtoTypeRegistrarC2EPFvvE@Qt_6 6.6.0
 _ZN13QMetaSequence12MetaSequenceI5QListIN10QtProtobuf18TransparentWrapperIiNS2_7int_tagEEEEE5valueE@Qt_6 6.6.0
 _ZN13QMetaSequence12MetaSequenceI5QListIN10QtProtobuf18TransparentWrapperIiNS2_9fixed_tagEEEEE5valueE@Qt_6 6.6.0
 _ZN13QMetaSequence12MetaSequenceI5QListIN10QtProtobuf18TransparentWrapperIjNS2_9fixed_tagEEEEE5valueE@Qt_6 6.6.0
 (subst)_ZN13QMetaSequence12MetaSequenceI5QListIN10QtProtobuf18TransparentWrapperI{int64_t}NS2_7int_tagEEEEE5valueE@Qt_6 6.6.0
 (subst)_ZN13QMetaSequence12MetaSequenceI5QListIN10QtProtobuf18TransparentWrapperI{int64_t}NS2_9fixed_tagEEEEE5valueE@Qt_6 6.6.0
 (subst)_ZN13QMetaSequence12MetaSequenceI5QListIN10QtProtobuf18TransparentWrapperI{uint64_t}NS2_9fixed_tagEEEEE5valueE@Qt_6 6.6.0
 _ZN13QMetaSequence12MetaSequenceI5QListIbEE5valueE@Qt_6 6.6.0
 _ZN13QMetaSequence12MetaSequenceI5QListIdEE5valueE@Qt_6 6.6.0
 _ZN13QMetaSequence12MetaSequenceI5QListIfEE5valueE@Qt_6 6.6.0
 _ZN13QMetaSequence12MetaSequenceI5QListIiEE5valueE@Qt_6 6.6.0
 _ZN13QMetaSequence12MetaSequenceI5QListIjEE5valueE@Qt_6 6.6.0
 (subst)_ZN13QMetaSequence12MetaSequenceI5QListI{int64_t}EE5valueE@Qt_6 6.6.0
 (subst)_ZN13QMetaSequence12MetaSequenceI5QListI{uint64_t}EE5valueE@Qt_6 6.6.0
 _ZN16QProtobufMessage11setPropertyE14QAnyStringViewO8QVariant@Qt_6 6.6.0
 _ZN16QProtobufMessage11setPropertyE14QAnyStringViewRK8QVariant@Qt_6 6.6.0
 _ZN16QProtobufMessage15constructByNameERK7QString@Qt_6 6.6.0
 _ZN16QProtobufMessage16staticMetaObjectE@Qt_6 6.6.0
 _ZN16QProtobufMessage7isEqualERKS_S1_@Qt_6 6.6.0
 _ZN16QProtobufMessageC1EPK11QMetaObject@Qt_6 6.6.0
 _ZN16QProtobufMessageC1ERKS_@Qt_6 6.6.0
 _ZN16QProtobufMessageC2EPK11QMetaObject@Qt_6 6.6.0
 _ZN16QProtobufMessageC2ERKS_@Qt_6 6.6.0
 _ZN16QProtobufMessageD1Ev@Qt_6 6.6.0
 _ZN16QProtobufMessageD2Ev@Qt_6 6.6.0
 _ZN16QProtobufMessageaSERKS_@Qt_6 6.6.0
 _ZN17QtProtobufPrivate11findHandlerE9QMetaType@Qt_6 6.6.0
 _ZN17QtProtobufPrivate14QProtobufOneof8setValueERK8QVarianti@Qt_6 6.6.0
 _ZN17QtProtobufPrivate14QProtobufOneofC1ERKS0_@Qt_6 6.6.0
 _ZN17QtProtobufPrivate14QProtobufOneofC1Ev@Qt_6 6.6.0
 _ZN17QtProtobufPrivate14QProtobufOneofC2ERKS0_@Qt_6 6.6.0
 _ZN17QtProtobufPrivate14QProtobufOneofC2Ev@Qt_6 6.6.0
 _ZN17QtProtobufPrivate14QProtobufOneofD1Ev@Qt_6 6.6.0
 _ZN17QtProtobufPrivate14QProtobufOneofD2Ev@Qt_6 6.6.0
 _ZN17QtProtobufPrivate14QProtobufOneofaSERKS0_@Qt_6 6.6.0
 _ZN17QtProtobufPrivate15registerHandlerE9QMetaTypeRKNS_20SerializationHandlerE@Qt_6 6.6.0
 _ZN17QtProtobufPrivate16registerOrderingE9QMetaTypeNS_25QProtobufPropertyOrderingE@Qt_6 6.6.0
 _ZN19QProtobufSerializerC1Ev@Qt_6 6.6.0
 _ZN19QProtobufSerializerC2Ev@Qt_6 6.6.0
 _ZN19QProtobufSerializerD0Ev@Qt_6 6.6.0
 _ZN19QProtobufSerializerD1Ev@Qt_6 6.6.0
 _ZN19QProtobufSerializerD2Ev@Qt_6 6.6.0
 _ZN23QProtobufMessageDeleterclEP16QProtobufMessage@Qt_6 6.6.0
 _ZN27QAbstractProtobufSerializerD0Ev@Qt_6 6.6.0
 _ZN27QAbstractProtobufSerializerD1Ev@Qt_6 6.6.0
 _ZN27QAbstractProtobufSerializerD2Ev@Qt_6 6.6.0
 _ZNK16QProtobufMessage8propertyE14QAnyStringView@Qt_6 6.6.0
 _ZNK17QtProtobufPrivate14QProtobufOneof10holdsFieldEi@Qt_6 6.6.0
 _ZNK17QtProtobufPrivate14QProtobufOneof11fieldNumberEv@Qt_6 6.6.0
 _ZNK17QtProtobufPrivate14QProtobufOneof7isEqualERKS0_@Qt_6 6.6.0
 _ZNK17QtProtobufPrivate14QProtobufOneof8rawValueEv@Qt_6 6.6.0
 _ZNK17QtProtobufPrivate25QProtobufPropertyOrdering11getJsonNameEi@Qt_6 6.6.0
 _ZNK17QtProtobufPrivate25QProtobufPropertyOrdering13getFieldFlagsEi@Qt_6 6.6.0
 _ZNK17QtProtobufPrivate25QProtobufPropertyOrdering14getFieldNumberEi@Qt_6 6.6.0
 _ZNK17QtProtobufPrivate25QProtobufPropertyOrdering16getPropertyIndexEi@Qt_6 6.6.0
 _ZNK17QtProtobufPrivate25QProtobufPropertyOrdering18getMessageFullNameEv@Qt_6 6.6.0
 _ZNK17QtProtobufPrivate25QProtobufPropertyOrdering18indexOfFieldNumberEi@Qt_6 6.6.0
 (subst)_ZNK19QProtobufSerializer13serializeEnumEN10QtProtobuf18TransparentWrapperI{int64_t}NS0_7int_tagEEERKN17QtProtobufPrivate29QProtobufPropertyOrderingInfoE@Qt_6 6.6.0
 (subst)_ZNK19QProtobufSerializer15deserializeEnumERN10QtProtobuf18TransparentWrapperI{int64_t}NS0_7int_tagEEERN17QtProtobufPrivate26QProtobufSelfcheckIteratorE@Qt_6 6.6.0
 _ZNK19QProtobufSerializer15serializeObjectEPK16QProtobufMessageRKN17QtProtobufPrivate25QProtobufPropertyOrderingERKNS3_29QProtobufPropertyOrderingInfoE@Qt_6 6.6.0
 _ZNK19QProtobufSerializer16serializeMapPairERK8QVariantS2_RKN17QtProtobufPrivate29QProtobufPropertyOrderingInfoE@Qt_6 6.6.0
 _ZNK19QProtobufSerializer16serializeMessageEPK16QProtobufMessageRKN17QtProtobufPrivate25QProtobufPropertyOrderingE@Qt_6 6.6.0
 _ZNK19QProtobufSerializer17deserializeObjectEP16QProtobufMessageRKN17QtProtobufPrivate25QProtobufPropertyOrderingERNS2_26QProtobufSelfcheckIteratorE@Qt_6 6.6.0
 (subst)_ZNK19QProtobufSerializer17serializeEnumListERK5QListIN10QtProtobuf18TransparentWrapperI{int64_t}NS1_7int_tagEEEERKN17QtProtobufPrivate29QProtobufPropertyOrderingInfoE@Qt_6 6.6.0
 _ZNK19QProtobufSerializer18deserializeMapPairER8QVariantS1_RN17QtProtobufPrivate26QProtobufSelfcheckIteratorE@Qt_6 6.6.0
 _ZNK19QProtobufSerializer18deserializeMessageEP16QProtobufMessageRKN17QtProtobufPrivate25QProtobufPropertyOrderingE14QByteArrayView@Qt_6 6.6.0
 (subst)_ZNK19QProtobufSerializer19deserializeEnumListER5QListIN10QtProtobuf18TransparentWrapperI{int64_t}NS1_7int_tagEEEERN17QtProtobufPrivate26QProtobufSelfcheckIteratorE@Qt_6 6.6.0
 _ZNK19QProtobufSerializer19serializeListObjectEPK16QProtobufMessageRKN17QtProtobufPrivate25QProtobufPropertyOrderingERKNS3_29QProtobufPropertyOrderingInfoE@Qt_6 6.6.0
 _ZNK19QProtobufSerializer20deserializationErrorEv@Qt_6 6.6.0
 _ZNK19QProtobufSerializer21deserializeListObjectEP16QProtobufMessageRKN17QtProtobufPrivate25QProtobufPropertyOrderingERNS2_26QProtobufSelfcheckIteratorE@Qt_6 6.6.0
 _ZNK19QProtobufSerializer26deserializationErrorStringEv@Qt_6 6.6.0
 _ZNK27QAbstractProtobufSerializer11doSerializeEPK16QProtobufMessageRKN17QtProtobufPrivate25QProtobufPropertyOrderingE@Qt_6 6.6.0
 _ZNK27QAbstractProtobufSerializer13doDeserializeEP16QProtobufMessageRKN17QtProtobufPrivate25QProtobufPropertyOrderingE14QByteArrayView@Qt_6 6.6.0
 _ZNK27QAbstractProtobufSerializer19serializeRawMessageEPK16QProtobufMessage@Qt_6 6.6.0
 _ZNK27QAbstractProtobufSerializer21deserializeRawMessageEP16QProtobufMessage14QByteArrayView@Qt_6 6.6.0
 _ZTI19QProtobufSerializer@Qt_6 6.6.0
 _ZTI27QAbstractProtobufSerializer@Qt_6 6.6.0
 _ZTIZN9QMetaType17registerConverterI5QListIN10QtProtobuf18TransparentWrapperIiNS2_7int_tagEEEE9QIterableI13QMetaSequenceEN9QtPrivate33QSequentialIterableConvertFunctorIS6_EEEEbT1_EUlPKvPvE_@Qt_6 6.6.0
 _ZTIZN9QMetaType17registerConverterI5QListIN10QtProtobuf18TransparentWrapperIiNS2_9fixed_tagEEEE9QIterableI13QMetaSequenceEN9QtPrivate33QSequentialIterableConvertFunctorIS6_EEEEbT1_EUlPKvPvE_@Qt_6 6.6.0
 _ZTIZN9QMetaType17registerConverterI5QListIN10QtProtobuf18TransparentWrapperIjNS2_9fixed_tagEEEE9QIterableI13QMetaSequenceEN9QtPrivate33QSequentialIterableConvertFunctorIS6_EEEEbT1_EUlPKvPvE_@Qt_6 6.6.0
 (subst)_ZTIZN9QMetaType17registerConverterI5QListIN10QtProtobuf18TransparentWrapperI{int64_t}NS2_7int_tagEEEE9QIterableI13QMetaSequenceEN9QtPrivate33QSequentialIterableConvertFunctorIS6_EEEEbT1_EUlPKvPvE_@Qt_6 6.6.0
 (subst)_ZTIZN9QMetaType17registerConverterI5QListIN10QtProtobuf18TransparentWrapperI{int64_t}NS2_9fixed_tagEEEE9QIterableI13QMetaSequenceEN9QtPrivate33QSequentialIterableConvertFunctorIS6_EEEEbT1_EUlPKvPvE_@Qt_6 6.6.0
 (subst)_ZTIZN9QMetaType17registerConverterI5QListIN10QtProtobuf18TransparentWrapperI{uint64_t}NS2_9fixed_tagEEEE9QIterableI13QMetaSequenceEN9QtPrivate33QSequentialIterableConvertFunctorIS6_EEEEbT1_EUlPKvPvE_@Qt_6 6.6.0
 _ZTIZN9QMetaType17registerConverterI5QListIbE9QIterableI13QMetaSequenceEN9QtPrivate33QSequentialIterableConvertFunctorIS2_EEEEbT1_EUlPKvPvE_@Qt_6 6.6.0
 _ZTIZN9QMetaType17registerConverterI5QListIdE9QIterableI13QMetaSequenceEN9QtPrivate33QSequentialIterableConvertFunctorIS2_EEEEbT1_EUlPKvPvE_@Qt_6 6.6.0
 _ZTIZN9QMetaType17registerConverterI5QListIfE9QIterableI13QMetaSequenceEN9QtPrivate33QSequentialIterableConvertFunctorIS2_EEEEbT1_EUlPKvPvE_@Qt_6 6.6.0
 _ZTIZN9QMetaType17registerConverterI5QListIiE9QIterableI13QMetaSequenceEN9QtPrivate33QSequentialIterableConvertFunctorIS2_EEEEbT1_EUlPKvPvE_@Qt_6 6.6.0
 _ZTIZN9QMetaType17registerConverterI5QListIjE9QIterableI13QMetaSequenceEN9QtPrivate33QSequentialIterableConvertFunctorIS2_EEEEbT1_EUlPKvPvE_@Qt_6 6.6.0
 (subst)_ZTIZN9QMetaType17registerConverterI5QListI{int64_t}E9QIterableI13QMetaSequenceEN9QtPrivate33QSequentialIterableConvertFunctorIS2_EEEEbT1_EUlPKvPvE_@Qt_6 6.6.0
 (subst)_ZTIZN9QMetaType17registerConverterI5QListI{uint64_t}E9QIterableI13QMetaSequenceEN9QtPrivate33QSequentialIterableConvertFunctorIS2_EEEEbT1_EUlPKvPvE_@Qt_6 6.6.0
 _ZTIZN9QMetaType17registerConverterIN10QtProtobuf18TransparentWrapperIiNS1_7int_tagEEE7QStringPFS5_S4_EEEbT1_EUlPKvPvE_@Qt_6 6.6.0
 _ZTIZN9QMetaType17registerConverterIN10QtProtobuf18TransparentWrapperIiNS1_7int_tagEEEdPFiS4_EEEbT1_EUlPKvPvE_@Qt_6 6.6.0
 _ZTIZN9QMetaType17registerConverterIN10QtProtobuf18TransparentWrapperIiNS1_7int_tagEEEiPFiS4_EEEbT1_EUlPKvPvE_@Qt_6 6.6.0
 _ZTIZN9QMetaType17registerConverterIN10QtProtobuf18TransparentWrapperIiNS1_7int_tagEEEjPFiS4_EEEbT1_EUlPKvPvE_@Qt_6 6.6.0
 (arch=!armel !armhf !i386 !powerpc)_ZTIZN9QMetaType17registerConverterIN10QtProtobuf18TransparentWrapperIiNS1_7int_tagEEElPFiS4_EEEbT1_EUlPKvPvE_@Qt_6 6.6.1
 (arch=!armel !armhf !i386 !powerpc)_ZTIZN9QMetaType17registerConverterIN10QtProtobuf18TransparentWrapperIiNS1_7int_tagEEEmPFiS4_EEEbT1_EUlPKvPvE_@Qt_6 6.6.1
 _ZTIZN9QMetaType17registerConverterIN10QtProtobuf18TransparentWrapperIiNS1_7int_tagEEExPFiS4_EEEbT1_EUlPKvPvE_@Qt_6 6.6.0
 _ZTIZN9QMetaType17registerConverterIN10QtProtobuf18TransparentWrapperIiNS1_7int_tagEEEyPFiS4_EEEbT1_EUlPKvPvE_@Qt_6 6.6.0
 _ZTIZN9QMetaType17registerConverterIN10QtProtobuf18TransparentWrapperIiNS1_9fixed_tagEEE7QStringPFS5_S4_EEEbT1_EUlPKvPvE_@Qt_6 6.6.0
 _ZTIZN9QMetaType17registerConverterIN10QtProtobuf18TransparentWrapperIiNS1_9fixed_tagEEEdPFiS4_EEEbT1_EUlPKvPvE_@Qt_6 6.6.0
 _ZTIZN9QMetaType17registerConverterIN10QtProtobuf18TransparentWrapperIiNS1_9fixed_tagEEEiPFiS4_EEEbT1_EUlPKvPvE_@Qt_6 6.6.0
 _ZTIZN9QMetaType17registerConverterIN10QtProtobuf18TransparentWrapperIiNS1_9fixed_tagEEEjPFiS4_EEEbT1_EUlPKvPvE_@Qt_6 6.6.0
 (arch=!armel !armhf !i386 !powerpc)_ZTIZN9QMetaType17registerConverterIN10QtProtobuf18TransparentWrapperIiNS1_9fixed_tagEEElPFiS4_EEEbT1_EUlPKvPvE_@Qt_6 6.6.1
 (arch=!armel !armhf !i386 !powerpc)_ZTIZN9QMetaType17registerConverterIN10QtProtobuf18TransparentWrapperIiNS1_9fixed_tagEEEmPFiS4_EEEbT1_EUlPKvPvE_@Qt_6 6.6.1
 _ZTIZN9QMetaType17registerConverterIN10QtProtobuf18TransparentWrapperIiNS1_9fixed_tagEEExPFiS4_EEEbT1_EUlPKvPvE_@Qt_6 6.6.0
 _ZTIZN9QMetaType17registerConverterIN10QtProtobuf18TransparentWrapperIiNS1_9fixed_tagEEEyPFiS4_EEEbT1_EUlPKvPvE_@Qt_6 6.6.0
 _ZTIZN9QMetaType17registerConverterIN10QtProtobuf18TransparentWrapperIjNS1_9fixed_tagEEE7QStringPFS5_S4_EEEbT1_EUlPKvPvE_@Qt_6 6.6.0
 _ZTIZN9QMetaType17registerConverterIN10QtProtobuf18TransparentWrapperIjNS1_9fixed_tagEEEdPFjS4_EEEbT1_EUlPKvPvE_@Qt_6 6.6.0
 _ZTIZN9QMetaType17registerConverterIN10QtProtobuf18TransparentWrapperIjNS1_9fixed_tagEEEiPFjS4_EEEbT1_EUlPKvPvE_@Qt_6 6.6.0
 _ZTIZN9QMetaType17registerConverterIN10QtProtobuf18TransparentWrapperIjNS1_9fixed_tagEEEjPFjS4_EEEbT1_EUlPKvPvE_@Qt_6 6.6.0
 (arch=!armel !armhf !i386 !powerpc)_ZTIZN9QMetaType17registerConverterIN10QtProtobuf18TransparentWrapperIjNS1_9fixed_tagEEElPFjS4_EEEbT1_EUlPKvPvE_@Qt_6 6.6.1
 (arch=!armel !armhf !i386 !powerpc)_ZTIZN9QMetaType17registerConverterIN10QtProtobuf18TransparentWrapperIjNS1_9fixed_tagEEEmPFjS4_EEEbT1_EUlPKvPvE_@Qt_6 6.6.1
 _ZTIZN9QMetaType17registerConverterIN10QtProtobuf18TransparentWrapperIjNS1_9fixed_tagEEExPFjS4_EEEbT1_EUlPKvPvE_@Qt_6 6.6.0
 _ZTIZN9QMetaType17registerConverterIN10QtProtobuf18TransparentWrapperIjNS1_9fixed_tagEEEyPFjS4_EEEbT1_EUlPKvPvE_@Qt_6 6.6.0
 (arch=!armel !armhf !i386 !powerpc)_ZTIZN9QMetaType17registerConverterIN10QtProtobuf18TransparentWrapperIlNS1_7int_tagEEEiPFlS4_EEEbT1_EUlPKvPvE_@Qt_6 6.6.1
 (arch=!armel !armhf !i386 !powerpc)_ZTIZN9QMetaType17registerConverterIN10QtProtobuf18TransparentWrapperIlNS1_7int_tagEEEjPFlS4_EEEbT1_EUlPKvPvE_@Qt_6 6.6.1
 (arch=!armel !armhf !i386 !powerpc)_ZTIZN9QMetaType17registerConverterIN10QtProtobuf18TransparentWrapperIlNS1_7int_tagEEElPFlS4_EEEbT1_EUlPKvPvE_@Qt_6 6.6.1
 (arch=!armel !armhf !i386 !powerpc)_ZTIZN9QMetaType17registerConverterIN10QtProtobuf18TransparentWrapperIlNS1_7int_tagEEEmPFlS4_EEEbT1_EUlPKvPvE_@Qt_6 6.6.1
 (arch=!armel !armhf !i386 !powerpc)_ZTIZN9QMetaType17registerConverterIN10QtProtobuf18TransparentWrapperIlNS1_7int_tagEEExPFlS4_EEEbT1_EUlPKvPvE_@Qt_6 6.6.1
 (arch=!armel !armhf !i386 !powerpc)_ZTIZN9QMetaType17registerConverterIN10QtProtobuf18TransparentWrapperIlNS1_7int_tagEEEyPFlS4_EEEbT1_EUlPKvPvE_@Qt_6 6.6.1
 (arch=!armel !armhf !i386 !powerpc)_ZTIZN9QMetaType17registerConverterIN10QtProtobuf18TransparentWrapperIlNS1_9fixed_tagEEEiPFlS4_EEEbT1_EUlPKvPvE_@Qt_6 6.6.1
 (arch=!armel !armhf !i386 !powerpc)_ZTIZN9QMetaType17registerConverterIN10QtProtobuf18TransparentWrapperIlNS1_9fixed_tagEEEjPFlS4_EEEbT1_EUlPKvPvE_@Qt_6 6.6.1
 (arch=!armel !armhf !i386 !powerpc)_ZTIZN9QMetaType17registerConverterIN10QtProtobuf18TransparentWrapperIlNS1_9fixed_tagEEElPFlS4_EEEbT1_EUlPKvPvE_@Qt_6 6.6.1
 (arch=!armel !armhf !i386 !powerpc)_ZTIZN9QMetaType17registerConverterIN10QtProtobuf18TransparentWrapperIlNS1_9fixed_tagEEEmPFlS4_EEEbT1_EUlPKvPvE_@Qt_6 6.6.1
 (arch=!armel !armhf !i386 !powerpc)_ZTIZN9QMetaType17registerConverterIN10QtProtobuf18TransparentWrapperIlNS1_9fixed_tagEEExPFlS4_EEEbT1_EUlPKvPvE_@Qt_6 6.6.1
 (arch=!armel !armhf !i386 !powerpc)_ZTIZN9QMetaType17registerConverterIN10QtProtobuf18TransparentWrapperIlNS1_9fixed_tagEEEyPFlS4_EEEbT1_EUlPKvPvE_@Qt_6 6.6.1
 (arch=!armel !armhf !i386 !powerpc)_ZTIZN9QMetaType17registerConverterIN10QtProtobuf18TransparentWrapperImNS1_9fixed_tagEEEiPFmS4_EEEbT1_EUlPKvPvE_@Qt_6 6.6.1
 (arch=!armel !armhf !i386 !powerpc)_ZTIZN9QMetaType17registerConverterIN10QtProtobuf18TransparentWrapperImNS1_9fixed_tagEEEjPFmS4_EEEbT1_EUlPKvPvE_@Qt_6 6.6.1
 (arch=!armel !armhf !i386 !powerpc)_ZTIZN9QMetaType17registerConverterIN10QtProtobuf18TransparentWrapperImNS1_9fixed_tagEEElPFmS4_EEEbT1_EUlPKvPvE_@Qt_6 6.6.1
 (arch=!armel !armhf !i386 !powerpc)_ZTIZN9QMetaType17registerConverterIN10QtProtobuf18TransparentWrapperImNS1_9fixed_tagEEEmPFmS4_EEEbT1_EUlPKvPvE_@Qt_6 6.6.1
 (arch=!armel !armhf !i386 !powerpc)_ZTIZN9QMetaType17registerConverterIN10QtProtobuf18TransparentWrapperImNS1_9fixed_tagEEExPFmS4_EEEbT1_EUlPKvPvE_@Qt_6 6.6.1
 (arch=!armel !armhf !i386 !powerpc)_ZTIZN9QMetaType17registerConverterIN10QtProtobuf18TransparentWrapperImNS1_9fixed_tagEEEyPFmS4_EEEbT1_EUlPKvPvE_@Qt_6 6.6.1
 (arch=armel armhf i386 powerpc)_ZTIZN9QMetaType17registerConverterIN10QtProtobuf18TransparentWrapperIxNS1_7int_tagEEEiPFxS4_EEEbT1_EUlPKvPvE_@Qt_6 6.6.1
 (arch=armel armhf i386 powerpc)_ZTIZN9QMetaType17registerConverterIN10QtProtobuf18TransparentWrapperIxNS1_7int_tagEEEjPFxS4_EEEbT1_EUlPKvPvE_@Qt_6 6.6.1
 (arch=armel armhf i386 powerpc)_ZTIZN9QMetaType17registerConverterIN10QtProtobuf18TransparentWrapperIxNS1_7int_tagEEExPFxS4_EEEbT1_EUlPKvPvE_@Qt_6 6.6.1
 (arch=armel armhf i386 powerpc)_ZTIZN9QMetaType17registerConverterIN10QtProtobuf18TransparentWrapperIxNS1_7int_tagEEEyPFxS4_EEEbT1_EUlPKvPvE_@Qt_6 6.6.1
 (arch=armel armhf i386 powerpc)_ZTIZN9QMetaType17registerConverterIN10QtProtobuf18TransparentWrapperIxNS1_9fixed_tagEEEiPFxS4_EEEbT1_EUlPKvPvE_@Qt_6 6.6.1
 (arch=armel armhf i386 powerpc)_ZTIZN9QMetaType17registerConverterIN10QtProtobuf18TransparentWrapperIxNS1_9fixed_tagEEEjPFxS4_EEEbT1_EUlPKvPvE_@Qt_6 6.6.1
 (arch=armel armhf i386 powerpc)_ZTIZN9QMetaType17registerConverterIN10QtProtobuf18TransparentWrapperIxNS1_9fixed_tagEEExPFxS4_EEEbT1_EUlPKvPvE_@Qt_6 6.6.1
 (arch=armel armhf i386 powerpc)_ZTIZN9QMetaType17registerConverterIN10QtProtobuf18TransparentWrapperIxNS1_9fixed_tagEEEyPFxS4_EEEbT1_EUlPKvPvE_@Qt_6 6.6.1
 (arch=armel armhf i386 powerpc)_ZTIZN9QMetaType17registerConverterIN10QtProtobuf18TransparentWrapperIyNS1_9fixed_tagEEEiPFyS4_EEEbT1_EUlPKvPvE_@Qt_6 6.6.1
 (arch=armel armhf i386 powerpc)_ZTIZN9QMetaType17registerConverterIN10QtProtobuf18TransparentWrapperIyNS1_9fixed_tagEEEjPFyS4_EEEbT1_EUlPKvPvE_@Qt_6 6.6.1
 (arch=armel armhf i386 powerpc)_ZTIZN9QMetaType17registerConverterIN10QtProtobuf18TransparentWrapperIyNS1_9fixed_tagEEExPFyS4_EEEbT1_EUlPKvPvE_@Qt_6 6.6.1
 (arch=armel armhf i386 powerpc)_ZTIZN9QMetaType17registerConverterIN10QtProtobuf18TransparentWrapperIyNS1_9fixed_tagEEEyPFyS4_EEEbT1_EUlPKvPvE_@Qt_6 6.6.1
 (subst)_ZTIZN9QMetaType17registerConverterIN10QtProtobuf18TransparentWrapperI{int64_t}NS1_7int_tagEEE7QStringPFS5_S4_EEEbT1_EUlPKvPvE_@Qt_6 6.6.0
 (subst)_ZTIZN9QMetaType17registerConverterIN10QtProtobuf18TransparentWrapperI{int64_t}NS1_7int_tagEEEdPF{int64_t}S4_EEEbT1_EUlPKvPvE_@Qt_6 6.6.0
 (subst)_ZTIZN9QMetaType17registerConverterIN10QtProtobuf18TransparentWrapperI{int64_t}NS1_9fixed_tagEEE7QStringPFS5_S4_EEEbT1_EUlPKvPvE_@Qt_6 6.6.0
 (subst)_ZTIZN9QMetaType17registerConverterIN10QtProtobuf18TransparentWrapperI{int64_t}NS1_9fixed_tagEEEdPF{int64_t}S4_EEEbT1_EUlPKvPvE_@Qt_6 6.6.0
 (subst)_ZTIZN9QMetaType17registerConverterIN10QtProtobuf18TransparentWrapperI{uint64_t}NS1_9fixed_tagEEE7QStringPFS5_S4_EEEbT1_EUlPKvPvE_@Qt_6 6.6.0
 (subst)_ZTIZN9QMetaType17registerConverterIN10QtProtobuf18TransparentWrapperI{uint64_t}NS1_9fixed_tagEEEdPF{uint64_t}S4_EEEbT1_EUlPKvPvE_@Qt_6 6.6.0
 _ZTIZN9QMetaType17registerConverterIdN10QtProtobuf18TransparentWrapperIiNS1_7int_tagEEEPFS4_iEEEbT1_EUlPKvPvE_@Qt_6 6.6.0
 _ZTIZN9QMetaType17registerConverterIdN10QtProtobuf18TransparentWrapperIiNS1_9fixed_tagEEEPFS4_iEEEbT1_EUlPKvPvE_@Qt_6 6.6.0
 _ZTIZN9QMetaType17registerConverterIdN10QtProtobuf18TransparentWrapperIjNS1_9fixed_tagEEEPFS4_jEEEbT1_EUlPKvPvE_@Qt_6 6.6.0
 (subst)_ZTIZN9QMetaType17registerConverterIdN10QtProtobuf18TransparentWrapperI{int64_t}NS1_7int_tagEEEPFS4_{int64_t}EEEbT1_EUlPKvPvE_@Qt_6 6.6.0
 (subst)_ZTIZN9QMetaType17registerConverterIdN10QtProtobuf18TransparentWrapperI{int64_t}NS1_9fixed_tagEEEPFS4_{int64_t}EEEbT1_EUlPKvPvE_@Qt_6 6.6.0
 (subst)_ZTIZN9QMetaType17registerConverterIdN10QtProtobuf18TransparentWrapperI{uint64_t}NS1_9fixed_tagEEEPFS4_{uint64_t}EEEbT1_EUlPKvPvE_@Qt_6 6.6.0
 _ZTIZN9QMetaType17registerConverterIiN10QtProtobuf18TransparentWrapperIiNS1_7int_tagEEEPFS4_iEEEbT1_EUlPKvPvE_@Qt_6 6.6.0
 _ZTIZN9QMetaType17registerConverterIiN10QtProtobuf18TransparentWrapperIiNS1_9fixed_tagEEEPFS4_iEEEbT1_EUlPKvPvE_@Qt_6 6.6.0
 _ZTIZN9QMetaType17registerConverterIiN10QtProtobuf18TransparentWrapperIjNS1_9fixed_tagEEEPFS4_jEEEbT1_EUlPKvPvE_@Qt_6 6.6.0
 (arch=!armel !armhf !i386 !powerpc)_ZTIZN9QMetaType17registerConverterIiN10QtProtobuf18TransparentWrapperIlNS1_7int_tagEEEPFS4_lEEEbT1_EUlPKvPvE_@Qt_6 6.6.1
 (arch=!armel !armhf !i386 !powerpc)_ZTIZN9QMetaType17registerConverterIiN10QtProtobuf18TransparentWrapperIlNS1_9fixed_tagEEEPFS4_lEEEbT1_EUlPKvPvE_@Qt_6 6.6.1
 (arch=!armel !armhf !i386 !powerpc)_ZTIZN9QMetaType17registerConverterIiN10QtProtobuf18TransparentWrapperImNS1_9fixed_tagEEEPFS4_mEEEbT1_EUlPKvPvE_@Qt_6 6.6.1
 (arch=armel armhf i386 powerpc)_ZTIZN9QMetaType17registerConverterIiN10QtProtobuf18TransparentWrapperIxNS1_7int_tagEEEPFS4_xEEEbT1_EUlPKvPvE_@Qt_6 6.6.1
 (arch=armel armhf i386 powerpc)_ZTIZN9QMetaType17registerConverterIiN10QtProtobuf18TransparentWrapperIxNS1_9fixed_tagEEEPFS4_xEEEbT1_EUlPKvPvE_@Qt_6 6.6.1
 (arch=armel armhf i386 powerpc)_ZTIZN9QMetaType17registerConverterIiN10QtProtobuf18TransparentWrapperIyNS1_9fixed_tagEEEPFS4_yEEEbT1_EUlPKvPvE_@Qt_6 6.6.1
 _ZTIZN9QMetaType17registerConverterIjN10QtProtobuf18TransparentWrapperIiNS1_7int_tagEEEPFS4_iEEEbT1_EUlPKvPvE_@Qt_6 6.6.0
 _ZTIZN9QMetaType17registerConverterIjN10QtProtobuf18TransparentWrapperIiNS1_9fixed_tagEEEPFS4_iEEEbT1_EUlPKvPvE_@Qt_6 6.6.0
 _ZTIZN9QMetaType17registerConverterIjN10QtProtobuf18TransparentWrapperIjNS1_9fixed_tagEEEPFS4_jEEEbT1_EUlPKvPvE_@Qt_6 6.6.0
 (arch=!armel !armhf !i386 !powerpc)_ZTIZN9QMetaType17registerConverterIjN10QtProtobuf18TransparentWrapperIlNS1_7int_tagEEEPFS4_lEEEbT1_EUlPKvPvE_@Qt_6 6.6.1
 (arch=!armel !armhf !i386 !powerpc)_ZTIZN9QMetaType17registerConverterIjN10QtProtobuf18TransparentWrapperIlNS1_9fixed_tagEEEPFS4_lEEEbT1_EUlPKvPvE_@Qt_6 6.6.1
 (arch=!armel !armhf !i386 !powerpc)_ZTIZN9QMetaType17registerConverterIjN10QtProtobuf18TransparentWrapperImNS1_9fixed_tagEEEPFS4_mEEEbT1_EUlPKvPvE_@Qt_6 6.6.1
 (arch=armel armhf i386 powerpc)_ZTIZN9QMetaType17registerConverterIjN10QtProtobuf18TransparentWrapperIxNS1_7int_tagEEEPFS4_xEEEbT1_EUlPKvPvE_@Qt_6 6.6.1
 (arch=armel armhf i386 powerpc)_ZTIZN9QMetaType17registerConverterIjN10QtProtobuf18TransparentWrapperIxNS1_9fixed_tagEEEPFS4_xEEEbT1_EUlPKvPvE_@Qt_6 6.6.1
 (arch=armel armhf i386 powerpc)_ZTIZN9QMetaType17registerConverterIjN10QtProtobuf18TransparentWrapperIyNS1_9fixed_tagEEEPFS4_yEEEbT1_EUlPKvPvE_@Qt_6 6.6.1
 (arch=!armel !armhf !i386 !powerpc)_ZTIZN9QMetaType17registerConverterIlN10QtProtobuf18TransparentWrapperIiNS1_7int_tagEEEPFS4_iEEEbT1_EUlPKvPvE_@Qt_6 6.6.1
 (arch=!armel !armhf !i386 !powerpc)_ZTIZN9QMetaType17registerConverterIlN10QtProtobuf18TransparentWrapperIiNS1_9fixed_tagEEEPFS4_iEEEbT1_EUlPKvPvE_@Qt_6 6.6.1
 (arch=!armel !armhf !i386 !powerpc)_ZTIZN9QMetaType17registerConverterIlN10QtProtobuf18TransparentWrapperIjNS1_9fixed_tagEEEPFS4_jEEEbT1_EUlPKvPvE_@Qt_6 6.6.1
 (arch=!armel !armhf !i386 !powerpc)_ZTIZN9QMetaType17registerConverterIlN10QtProtobuf18TransparentWrapperIlNS1_7int_tagEEEPFS4_lEEEbT1_EUlPKvPvE_@Qt_6 6.6.1
 (arch=!armel !armhf !i386 !powerpc)_ZTIZN9QMetaType17registerConverterIlN10QtProtobuf18TransparentWrapperIlNS1_9fixed_tagEEEPFS4_lEEEbT1_EUlPKvPvE_@Qt_6 6.6.1
 (arch=!armel !armhf !i386 !powerpc)_ZTIZN9QMetaType17registerConverterIlN10QtProtobuf18TransparentWrapperImNS1_9fixed_tagEEEPFS4_mEEEbT1_EUlPKvPvE_@Qt_6 6.6.1
 (arch=!armel !armhf !i386 !powerpc)_ZTIZN9QMetaType17registerConverterImN10QtProtobuf18TransparentWrapperIiNS1_7int_tagEEEPFS4_iEEEbT1_EUlPKvPvE_@Qt_6 6.6.1
 (arch=!armel !armhf !i386 !powerpc)_ZTIZN9QMetaType17registerConverterImN10QtProtobuf18TransparentWrapperIiNS1_9fixed_tagEEEPFS4_iEEEbT1_EUlPKvPvE_@Qt_6 6.6.1
 (arch=!armel !armhf !i386 !powerpc)_ZTIZN9QMetaType17registerConverterImN10QtProtobuf18TransparentWrapperIjNS1_9fixed_tagEEEPFS4_jEEEbT1_EUlPKvPvE_@Qt_6 6.6.1
 (arch=!armel !armhf !i386 !powerpc)_ZTIZN9QMetaType17registerConverterImN10QtProtobuf18TransparentWrapperIlNS1_7int_tagEEEPFS4_lEEEbT1_EUlPKvPvE_@Qt_6 6.6.1
 (arch=!armel !armhf !i386 !powerpc)_ZTIZN9QMetaType17registerConverterImN10QtProtobuf18TransparentWrapperIlNS1_9fixed_tagEEEPFS4_lEEEbT1_EUlPKvPvE_@Qt_6 6.6.1
 (arch=!armel !armhf !i386 !powerpc)_ZTIZN9QMetaType17registerConverterImN10QtProtobuf18TransparentWrapperImNS1_9fixed_tagEEEPFS4_mEEEbT1_EUlPKvPvE_@Qt_6 6.6.1
 _ZTIZN9QMetaType17registerConverterIxN10QtProtobuf18TransparentWrapperIiNS1_7int_tagEEEPFS4_iEEEbT1_EUlPKvPvE_@Qt_6 6.6.0
 _ZTIZN9QMetaType17registerConverterIxN10QtProtobuf18TransparentWrapperIiNS1_9fixed_tagEEEPFS4_iEEEbT1_EUlPKvPvE_@Qt_6 6.6.0
 _ZTIZN9QMetaType17registerConverterIxN10QtProtobuf18TransparentWrapperIjNS1_9fixed_tagEEEPFS4_jEEEbT1_EUlPKvPvE_@Qt_6 6.6.0
 (arch=!armel !armhf !i386 !powerpc)_ZTIZN9QMetaType17registerConverterIxN10QtProtobuf18TransparentWrapperIlNS1_7int_tagEEEPFS4_lEEEbT1_EUlPKvPvE_@Qt_6 6.6.1
 (arch=!armel !armhf !i386 !powerpc)_ZTIZN9QMetaType17registerConverterIxN10QtProtobuf18TransparentWrapperIlNS1_9fixed_tagEEEPFS4_lEEEbT1_EUlPKvPvE_@Qt_6 6.6.1
 (arch=!armel !armhf !i386 !powerpc)_ZTIZN9QMetaType17registerConverterIxN10QtProtobuf18TransparentWrapperImNS1_9fixed_tagEEEPFS4_mEEEbT1_EUlPKvPvE_@Qt_6 6.6.1
 (arch=armel armhf i386 powerpc)_ZTIZN9QMetaType17registerConverterIxN10QtProtobuf18TransparentWrapperIxNS1_7int_tagEEEPFS4_xEEEbT1_EUlPKvPvE_@Qt_6 6.6.1
 (arch=armel armhf i386 powerpc)_ZTIZN9QMetaType17registerConverterIxN10QtProtobuf18TransparentWrapperIxNS1_9fixed_tagEEEPFS4_xEEEbT1_EUlPKvPvE_@Qt_6 6.6.1
 (arch=armel armhf i386 powerpc)_ZTIZN9QMetaType17registerConverterIxN10QtProtobuf18TransparentWrapperIyNS1_9fixed_tagEEEPFS4_yEEEbT1_EUlPKvPvE_@Qt_6 6.6.1
 _ZTIZN9QMetaType17registerConverterIyN10QtProtobuf18TransparentWrapperIiNS1_7int_tagEEEPFS4_iEEEbT1_EUlPKvPvE_@Qt_6 6.6.0
 _ZTIZN9QMetaType17registerConverterIyN10QtProtobuf18TransparentWrapperIiNS1_9fixed_tagEEEPFS4_iEEEbT1_EUlPKvPvE_@Qt_6 6.6.0
 _ZTIZN9QMetaType17registerConverterIyN10QtProtobuf18TransparentWrapperIjNS1_9fixed_tagEEEPFS4_jEEEbT1_EUlPKvPvE_@Qt_6 6.6.0
 (arch=!armel !armhf !i386 !powerpc)_ZTIZN9QMetaType17registerConverterIyN10QtProtobuf18TransparentWrapperIlNS1_7int_tagEEEPFS4_lEEEbT1_EUlPKvPvE_@Qt_6 6.6.1
 (arch=!armel !armhf !i386 !powerpc)_ZTIZN9QMetaType17registerConverterIyN10QtProtobuf18TransparentWrapperIlNS1_9fixed_tagEEEPFS4_lEEEbT1_EUlPKvPvE_@Qt_6 6.6.1
 (arch=!armel !armhf !i386 !powerpc)_ZTIZN9QMetaType17registerConverterIyN10QtProtobuf18TransparentWrapperImNS1_9fixed_tagEEEPFS4_mEEEbT1_EUlPKvPvE_@Qt_6 6.6.1
 (arch=armel armhf i386 powerpc)_ZTIZN9QMetaType17registerConverterIyN10QtProtobuf18TransparentWrapperIxNS1_7int_tagEEEPFS4_xEEEbT1_EUlPKvPvE_@Qt_6 6.6.1
 (arch=armel armhf i386 powerpc)_ZTIZN9QMetaType17registerConverterIyN10QtProtobuf18TransparentWrapperIxNS1_9fixed_tagEEEPFS4_xEEEbT1_EUlPKvPvE_@Qt_6 6.6.1
 (arch=armel armhf i386 powerpc)_ZTIZN9QMetaType17registerConverterIyN10QtProtobuf18TransparentWrapperIyNS1_9fixed_tagEEEPFS4_yEEEbT1_EUlPKvPvE_@Qt_6 6.6.1
 _ZTIZN9QMetaType19registerMutableViewI5QListIN10QtProtobuf18TransparentWrapperIiNS2_7int_tagEEEE9QIterableI13QMetaSequenceEN9QtPrivate37QSequentialIterableMutableViewFunctorIS6_EEEEbT1_EUlPvSE_E_@Qt_6 6.6.0
 _ZTIZN9QMetaType19registerMutableViewI5QListIN10QtProtobuf18TransparentWrapperIiNS2_9fixed_tagEEEE9QIterableI13QMetaSequenceEN9QtPrivate37QSequentialIterableMutableViewFunctorIS6_EEEEbT1_EUlPvSE_E_@Qt_6 6.6.0
 _ZTIZN9QMetaType19registerMutableViewI5QListIN10QtProtobuf18TransparentWrapperIjNS2_9fixed_tagEEEE9QIterableI13QMetaSequenceEN9QtPrivate37QSequentialIterableMutableViewFunctorIS6_EEEEbT1_EUlPvSE_E_@Qt_6 6.6.0
 (subst)_ZTIZN9QMetaType19registerMutableViewI5QListIN10QtProtobuf18TransparentWrapperI{int64_t}NS2_7int_tagEEEE9QIterableI13QMetaSequenceEN9QtPrivate37QSequentialIterableMutableViewFunctorIS6_EEEEbT1_EUlPvSE_E_@Qt_6 6.6.0
 (subst)_ZTIZN9QMetaType19registerMutableViewI5QListIN10QtProtobuf18TransparentWrapperI{int64_t}NS2_9fixed_tagEEEE9QIterableI13QMetaSequenceEN9QtPrivate37QSequentialIterableMutableViewFunctorIS6_EEEEbT1_EUlPvSE_E_@Qt_6 6.6.0
 (subst)_ZTIZN9QMetaType19registerMutableViewI5QListIN10QtProtobuf18TransparentWrapperI{uint64_t}NS2_9fixed_tagEEEE9QIterableI13QMetaSequenceEN9QtPrivate37QSequentialIterableMutableViewFunctorIS6_EEEEbT1_EUlPvSE_E_@Qt_6 6.6.0
 _ZTIZN9QMetaType19registerMutableViewI5QListIbE9QIterableI13QMetaSequenceEN9QtPrivate37QSequentialIterableMutableViewFunctorIS2_EEEEbT1_EUlPvSA_E_@Qt_6 6.6.0
 _ZTIZN9QMetaType19registerMutableViewI5QListIdE9QIterableI13QMetaSequenceEN9QtPrivate37QSequentialIterableMutableViewFunctorIS2_EEEEbT1_EUlPvSA_E_@Qt_6 6.6.0
 _ZTIZN9QMetaType19registerMutableViewI5QListIfE9QIterableI13QMetaSequenceEN9QtPrivate37QSequentialIterableMutableViewFunctorIS2_EEEEbT1_EUlPvSA_E_@Qt_6 6.6.0
 _ZTIZN9QMetaType19registerMutableViewI5QListIiE9QIterableI13QMetaSequenceEN9QtPrivate37QSequentialIterableMutableViewFunctorIS2_EEEEbT1_EUlPvSA_E_@Qt_6 6.6.0
 _ZTIZN9QMetaType19registerMutableViewI5QListIjE9QIterableI13QMetaSequenceEN9QtPrivate37QSequentialIterableMutableViewFunctorIS2_EEEEbT1_EUlPvSA_E_@Qt_6 6.6.0
 (subst)_ZTIZN9QMetaType19registerMutableViewI5QListI{int64_t}E9QIterableI13QMetaSequenceEN9QtPrivate37QSequentialIterableMutableViewFunctorIS2_EEEEbT1_EUlPvSA_E_@Qt_6 6.6.0
 (subst)_ZTIZN9QMetaType19registerMutableViewI5QListI{uint64_t}E9QIterableI13QMetaSequenceEN9QtPrivate37QSequentialIterableMutableViewFunctorIS2_EEEEbT1_EUlPvSA_E_@Qt_6 6.6.0
 _ZTS19QProtobufSerializer@Qt_6 6.6.0
 _ZTS27QAbstractProtobufSerializer@Qt_6 6.6.0
 _ZTSZN9QMetaType17registerConverterI5QListIN10QtProtobuf18TransparentWrapperIiNS2_7int_tagEEEE9QIterableI13QMetaSequenceEN9QtPrivate33QSequentialIterableConvertFunctorIS6_EEEEbT1_EUlPKvPvE_@Qt_6 6.6.0
 _ZTSZN9QMetaType17registerConverterI5QListIN10QtProtobuf18TransparentWrapperIiNS2_9fixed_tagEEEE9QIterableI13QMetaSequenceEN9QtPrivate33QSequentialIterableConvertFunctorIS6_EEEEbT1_EUlPKvPvE_@Qt_6 6.6.0
 _ZTSZN9QMetaType17registerConverterI5QListIN10QtProtobuf18TransparentWrapperIjNS2_9fixed_tagEEEE9QIterableI13QMetaSequenceEN9QtPrivate33QSequentialIterableConvertFunctorIS6_EEEEbT1_EUlPKvPvE_@Qt_6 6.6.0
 (subst)_ZTSZN9QMetaType17registerConverterI5QListIN10QtProtobuf18TransparentWrapperI{int64_t}NS2_7int_tagEEEE9QIterableI13QMetaSequenceEN9QtPrivate33QSequentialIterableConvertFunctorIS6_EEEEbT1_EUlPKvPvE_@Qt_6 6.6.0
 (subst)_ZTSZN9QMetaType17registerConverterI5QListIN10QtProtobuf18TransparentWrapperI{int64_t}NS2_9fixed_tagEEEE9QIterableI13QMetaSequenceEN9QtPrivate33QSequentialIterableConvertFunctorIS6_EEEEbT1_EUlPKvPvE_@Qt_6 6.6.0
 (subst)_ZTSZN9QMetaType17registerConverterI5QListIN10QtProtobuf18TransparentWrapperI{uint64_t}NS2_9fixed_tagEEEE9QIterableI13QMetaSequenceEN9QtPrivate33QSequentialIterableConvertFunctorIS6_EEEEbT1_EUlPKvPvE_@Qt_6 6.6.0
 _ZTSZN9QMetaType17registerConverterI5QListIbE9QIterableI13QMetaSequenceEN9QtPrivate33QSequentialIterableConvertFunctorIS2_EEEEbT1_EUlPKvPvE_@Qt_6 6.6.0
 _ZTSZN9QMetaType17registerConverterI5QListIdE9QIterableI13QMetaSequenceEN9QtPrivate33QSequentialIterableConvertFunctorIS2_EEEEbT1_EUlPKvPvE_@Qt_6 6.6.0
 _ZTSZN9QMetaType17registerConverterI5QListIfE9QIterableI13QMetaSequenceEN9QtPrivate33QSequentialIterableConvertFunctorIS2_EEEEbT1_EUlPKvPvE_@Qt_6 6.6.0
 _ZTSZN9QMetaType17registerConverterI5QListIiE9QIterableI13QMetaSequenceEN9QtPrivate33QSequentialIterableConvertFunctorIS2_EEEEbT1_EUlPKvPvE_@Qt_6 6.6.0
 _ZTSZN9QMetaType17registerConverterI5QListIjE9QIterableI13QMetaSequenceEN9QtPrivate33QSequentialIterableConvertFunctorIS2_EEEEbT1_EUlPKvPvE_@Qt_6 6.6.0
 (subst)_ZTSZN9QMetaType17registerConverterI5QListI{int64_t}E9QIterableI13QMetaSequenceEN9QtPrivate33QSequentialIterableConvertFunctorIS2_EEEEbT1_EUlPKvPvE_@Qt_6 6.6.0
 (subst)_ZTSZN9QMetaType17registerConverterI5QListI{uint64_t}E9QIterableI13QMetaSequenceEN9QtPrivate33QSequentialIterableConvertFunctorIS2_EEEEbT1_EUlPKvPvE_@Qt_6 6.6.0
 _ZTSZN9QMetaType17registerConverterIN10QtProtobuf18TransparentWrapperIiNS1_7int_tagEEE7QStringPFS5_S4_EEEbT1_EUlPKvPvE_@Qt_6 6.6.0
 _ZTSZN9QMetaType17registerConverterIN10QtProtobuf18TransparentWrapperIiNS1_7int_tagEEEdPFiS4_EEEbT1_EUlPKvPvE_@Qt_6 6.6.0
 _ZTSZN9QMetaType17registerConverterIN10QtProtobuf18TransparentWrapperIiNS1_7int_tagEEEiPFiS4_EEEbT1_EUlPKvPvE_@Qt_6 6.6.0
 _ZTSZN9QMetaType17registerConverterIN10QtProtobuf18TransparentWrapperIiNS1_7int_tagEEEjPFiS4_EEEbT1_EUlPKvPvE_@Qt_6 6.6.0
 (arch=!armel !armhf !i386 !powerpc)_ZTSZN9QMetaType17registerConverterIN10QtProtobuf18TransparentWrapperIiNS1_7int_tagEEElPFiS4_EEEbT1_EUlPKvPvE_@Qt_6 6.6.1
 (arch=!armel !armhf !i386 !powerpc)_ZTSZN9QMetaType17registerConverterIN10QtProtobuf18TransparentWrapperIiNS1_7int_tagEEEmPFiS4_EEEbT1_EUlPKvPvE_@Qt_6 6.6.1
 _ZTSZN9QMetaType17registerConverterIN10QtProtobuf18TransparentWrapperIiNS1_7int_tagEEExPFiS4_EEEbT1_EUlPKvPvE_@Qt_6 6.6.0
 _ZTSZN9QMetaType17registerConverterIN10QtProtobuf18TransparentWrapperIiNS1_7int_tagEEEyPFiS4_EEEbT1_EUlPKvPvE_@Qt_6 6.6.0
 _ZTSZN9QMetaType17registerConverterIN10QtProtobuf18TransparentWrapperIiNS1_9fixed_tagEEE7QStringPFS5_S4_EEEbT1_EUlPKvPvE_@Qt_6 6.6.0
 _ZTSZN9QMetaType17registerConverterIN10QtProtobuf18TransparentWrapperIiNS1_9fixed_tagEEEdPFiS4_EEEbT1_EUlPKvPvE_@Qt_6 6.6.0
 _ZTSZN9QMetaType17registerConverterIN10QtProtobuf18TransparentWrapperIiNS1_9fixed_tagEEEiPFiS4_EEEbT1_EUlPKvPvE_@Qt_6 6.6.0
 _ZTSZN9QMetaType17registerConverterIN10QtProtobuf18TransparentWrapperIiNS1_9fixed_tagEEEjPFiS4_EEEbT1_EUlPKvPvE_@Qt_6 6.6.0
 (arch=!armel !armhf !i386 !powerpc)_ZTSZN9QMetaType17registerConverterIN10QtProtobuf18TransparentWrapperIiNS1_9fixed_tagEEElPFiS4_EEEbT1_EUlPKvPvE_@Qt_6 6.6.1
 (arch=!armel !armhf !i386 !powerpc)_ZTSZN9QMetaType17registerConverterIN10QtProtobuf18TransparentWrapperIiNS1_9fixed_tagEEEmPFiS4_EEEbT1_EUlPKvPvE_@Qt_6 6.6.1
 _ZTSZN9QMetaType17registerConverterIN10QtProtobuf18TransparentWrapperIiNS1_9fixed_tagEEExPFiS4_EEEbT1_EUlPKvPvE_@Qt_6 6.6.0
 _ZTSZN9QMetaType17registerConverterIN10QtProtobuf18TransparentWrapperIiNS1_9fixed_tagEEEyPFiS4_EEEbT1_EUlPKvPvE_@Qt_6 6.6.0
 _ZTSZN9QMetaType17registerConverterIN10QtProtobuf18TransparentWrapperIjNS1_9fixed_tagEEE7QStringPFS5_S4_EEEbT1_EUlPKvPvE_@Qt_6 6.6.0
 _ZTSZN9QMetaType17registerConverterIN10QtProtobuf18TransparentWrapperIjNS1_9fixed_tagEEEdPFjS4_EEEbT1_EUlPKvPvE_@Qt_6 6.6.0
 _ZTSZN9QMetaType17registerConverterIN10QtProtobuf18TransparentWrapperIjNS1_9fixed_tagEEEiPFjS4_EEEbT1_EUlPKvPvE_@Qt_6 6.6.0
 _ZTSZN9QMetaType17registerConverterIN10QtProtobuf18TransparentWrapperIjNS1_9fixed_tagEEEjPFjS4_EEEbT1_EUlPKvPvE_@Qt_6 6.6.0
 (arch=!armel !armhf !i386 !powerpc)_ZTSZN9QMetaType17registerConverterIN10QtProtobuf18TransparentWrapperIjNS1_9fixed_tagEEElPFjS4_EEEbT1_EUlPKvPvE_@Qt_6 6.6.1
 (arch=!armel !armhf !i386 !powerpc)_ZTSZN9QMetaType17registerConverterIN10QtProtobuf18TransparentWrapperIjNS1_9fixed_tagEEEmPFjS4_EEEbT1_EUlPKvPvE_@Qt_6 6.6.1
 _ZTSZN9QMetaType17registerConverterIN10QtProtobuf18TransparentWrapperIjNS1_9fixed_tagEEExPFjS4_EEEbT1_EUlPKvPvE_@Qt_6 6.6.0
 _ZTSZN9QMetaType17registerConverterIN10QtProtobuf18TransparentWrapperIjNS1_9fixed_tagEEEyPFjS4_EEEbT1_EUlPKvPvE_@Qt_6 6.6.0
 (arch=!armel !armhf !i386 !powerpc)_ZTSZN9QMetaType17registerConverterIN10QtProtobuf18TransparentWrapperIlNS1_7int_tagEEEiPFlS4_EEEbT1_EUlPKvPvE_@Qt_6 6.6.1
 (arch=!armel !armhf !i386 !powerpc)_ZTSZN9QMetaType17registerConverterIN10QtProtobuf18TransparentWrapperIlNS1_7int_tagEEEjPFlS4_EEEbT1_EUlPKvPvE_@Qt_6 6.6.1
 (arch=!armel !armhf !i386 !powerpc)_ZTSZN9QMetaType17registerConverterIN10QtProtobuf18TransparentWrapperIlNS1_7int_tagEEElPFlS4_EEEbT1_EUlPKvPvE_@Qt_6 6.6.1
 (arch=!armel !armhf !i386 !powerpc)_ZTSZN9QMetaType17registerConverterIN10QtProtobuf18TransparentWrapperIlNS1_7int_tagEEEmPFlS4_EEEbT1_EUlPKvPvE_@Qt_6 6.6.1
 (arch=!armel !armhf !i386 !powerpc)_ZTSZN9QMetaType17registerConverterIN10QtProtobuf18TransparentWrapperIlNS1_7int_tagEEExPFlS4_EEEbT1_EUlPKvPvE_@Qt_6 6.6.1
 (arch=!armel !armhf !i386 !powerpc)_ZTSZN9QMetaType17registerConverterIN10QtProtobuf18TransparentWrapperIlNS1_7int_tagEEEyPFlS4_EEEbT1_EUlPKvPvE_@Qt_6 6.6.1
 (arch=!armel !armhf !i386 !powerpc)_ZTSZN9QMetaType17registerConverterIN10QtProtobuf18TransparentWrapperIlNS1_9fixed_tagEEEiPFlS4_EEEbT1_EUlPKvPvE_@Qt_6 6.6.1
 (arch=!armel !armhf !i386 !powerpc)_ZTSZN9QMetaType17registerConverterIN10QtProtobuf18TransparentWrapperIlNS1_9fixed_tagEEEjPFlS4_EEEbT1_EUlPKvPvE_@Qt_6 6.6.1
 (arch=!armel !armhf !i386 !powerpc)_ZTSZN9QMetaType17registerConverterIN10QtProtobuf18TransparentWrapperIlNS1_9fixed_tagEEElPFlS4_EEEbT1_EUlPKvPvE_@Qt_6 6.6.1
 (arch=!armel !armhf !i386 !powerpc)_ZTSZN9QMetaType17registerConverterIN10QtProtobuf18TransparentWrapperIlNS1_9fixed_tagEEEmPFlS4_EEEbT1_EUlPKvPvE_@Qt_6 6.6.1
 (arch=!armel !armhf !i386 !powerpc)_ZTSZN9QMetaType17registerConverterIN10QtProtobuf18TransparentWrapperIlNS1_9fixed_tagEEExPFlS4_EEEbT1_EUlPKvPvE_@Qt_6 6.6.1
 (arch=!armel !armhf !i386 !powerpc)_ZTSZN9QMetaType17registerConverterIN10QtProtobuf18TransparentWrapperIlNS1_9fixed_tagEEEyPFlS4_EEEbT1_EUlPKvPvE_@Qt_6 6.6.1
 (arch=!armel !armhf !i386 !powerpc)_ZTSZN9QMetaType17registerConverterIN10QtProtobuf18TransparentWrapperImNS1_9fixed_tagEEEiPFmS4_EEEbT1_EUlPKvPvE_@Qt_6 6.6.1
 (arch=!armel !armhf !i386 !powerpc)_ZTSZN9QMetaType17registerConverterIN10QtProtobuf18TransparentWrapperImNS1_9fixed_tagEEEjPFmS4_EEEbT1_EUlPKvPvE_@Qt_6 6.6.1
 (arch=!armel !armhf !i386 !powerpc)_ZTSZN9QMetaType17registerConverterIN10QtProtobuf18TransparentWrapperImNS1_9fixed_tagEEElPFmS4_EEEbT1_EUlPKvPvE_@Qt_6 6.6.1
 (arch=!armel !armhf !i386 !powerpc)_ZTSZN9QMetaType17registerConverterIN10QtProtobuf18TransparentWrapperImNS1_9fixed_tagEEEmPFmS4_EEEbT1_EUlPKvPvE_@Qt_6 6.6.1
 (arch=!armel !armhf !i386 !powerpc)_ZTSZN9QMetaType17registerConverterIN10QtProtobuf18TransparentWrapperImNS1_9fixed_tagEEExPFmS4_EEEbT1_EUlPKvPvE_@Qt_6 6.6.1
 (arch=!armel !armhf !i386 !powerpc)_ZTSZN9QMetaType17registerConverterIN10QtProtobuf18TransparentWrapperImNS1_9fixed_tagEEEyPFmS4_EEEbT1_EUlPKvPvE_@Qt_6 6.6.1
 (arch=armel armhf i386 powerpc)_ZTSZN9QMetaType17registerConverterIN10QtProtobuf18TransparentWrapperIxNS1_7int_tagEEEiPFxS4_EEEbT1_EUlPKvPvE_@Qt_6 6.6.1
 (arch=armel armhf i386 powerpc)_ZTSZN9QMetaType17registerConverterIN10QtProtobuf18TransparentWrapperIxNS1_7int_tagEEEjPFxS4_EEEbT1_EUlPKvPvE_@Qt_6 6.6.1
 (arch=armel armhf i386 powerpc)_ZTSZN9QMetaType17registerConverterIN10QtProtobuf18TransparentWrapperIxNS1_7int_tagEEExPFxS4_EEEbT1_EUlPKvPvE_@Qt_6 6.6.1
 (arch=armel armhf i386 powerpc)_ZTSZN9QMetaType17registerConverterIN10QtProtobuf18TransparentWrapperIxNS1_7int_tagEEEyPFxS4_EEEbT1_EUlPKvPvE_@Qt_6 6.6.1
 (arch=armel armhf i386 powerpc)_ZTSZN9QMetaType17registerConverterIN10QtProtobuf18TransparentWrapperIxNS1_9fixed_tagEEEiPFxS4_EEEbT1_EUlPKvPvE_@Qt_6 6.6.1
 (arch=armel armhf i386 powerpc)_ZTSZN9QMetaType17registerConverterIN10QtProtobuf18TransparentWrapperIxNS1_9fixed_tagEEEjPFxS4_EEEbT1_EUlPKvPvE_@Qt_6 6.6.1
 (arch=armel armhf i386 powerpc)_ZTSZN9QMetaType17registerConverterIN10QtProtobuf18TransparentWrapperIxNS1_9fixed_tagEEExPFxS4_EEEbT1_EUlPKvPvE_@Qt_6 6.6.1
 (arch=armel armhf i386 powerpc)_ZTSZN9QMetaType17registerConverterIN10QtProtobuf18TransparentWrapperIxNS1_9fixed_tagEEEyPFxS4_EEEbT1_EUlPKvPvE_@Qt_6 6.6.1
 (arch=armel armhf i386 powerpc)_ZTSZN9QMetaType17registerConverterIN10QtProtobuf18TransparentWrapperIyNS1_9fixed_tagEEEiPFyS4_EEEbT1_EUlPKvPvE_@Qt_6 6.6.1
 (arch=armel armhf i386 powerpc)_ZTSZN9QMetaType17registerConverterIN10QtProtobuf18TransparentWrapperIyNS1_9fixed_tagEEEjPFyS4_EEEbT1_EUlPKvPvE_@Qt_6 6.6.1
 (arch=armel armhf i386 powerpc)_ZTSZN9QMetaType17registerConverterIN10QtProtobuf18TransparentWrapperIyNS1_9fixed_tagEEExPFyS4_EEEbT1_EUlPKvPvE_@Qt_6 6.6.1
 (arch=armel armhf i386 powerpc)_ZTSZN9QMetaType17registerConverterIN10QtProtobuf18TransparentWrapperIyNS1_9fixed_tagEEEyPFyS4_EEEbT1_EUlPKvPvE_@Qt_6 6.6.1
 (subst)_ZTSZN9QMetaType17registerConverterIN10QtProtobuf18TransparentWrapperI{int64_t}NS1_7int_tagEEE7QStringPFS5_S4_EEEbT1_EUlPKvPvE_@Qt_6 6.6.0
 (subst)_ZTSZN9QMetaType17registerConverterIN10QtProtobuf18TransparentWrapperI{int64_t}NS1_7int_tagEEEdPF{int64_t}S4_EEEbT1_EUlPKvPvE_@Qt_6 6.6.0
 (subst)_ZTSZN9QMetaType17registerConverterIN10QtProtobuf18TransparentWrapperI{int64_t}NS1_9fixed_tagEEE7QStringPFS5_S4_EEEbT1_EUlPKvPvE_@Qt_6 6.6.0
 (subst)_ZTSZN9QMetaType17registerConverterIN10QtProtobuf18TransparentWrapperI{int64_t}NS1_9fixed_tagEEEdPF{int64_t}S4_EEEbT1_EUlPKvPvE_@Qt_6 6.6.0
 (subst)_ZTSZN9QMetaType17registerConverterIN10QtProtobuf18TransparentWrapperI{uint64_t}NS1_9fixed_tagEEE7QStringPFS5_S4_EEEbT1_EUlPKvPvE_@Qt_6 6.6.0
 (subst)_ZTSZN9QMetaType17registerConverterIN10QtProtobuf18TransparentWrapperI{uint64_t}NS1_9fixed_tagEEEdPF{uint64_t}S4_EEEbT1_EUlPKvPvE_@Qt_6 6.6.0
 _ZTSZN9QMetaType17registerConverterIdN10QtProtobuf18TransparentWrapperIiNS1_7int_tagEEEPFS4_iEEEbT1_EUlPKvPvE_@Qt_6 6.6.0
 _ZTSZN9QMetaType17registerConverterIdN10QtProtobuf18TransparentWrapperIiNS1_9fixed_tagEEEPFS4_iEEEbT1_EUlPKvPvE_@Qt_6 6.6.0
 _ZTSZN9QMetaType17registerConverterIdN10QtProtobuf18TransparentWrapperIjNS1_9fixed_tagEEEPFS4_jEEEbT1_EUlPKvPvE_@Qt_6 6.6.0
 (subst)_ZTSZN9QMetaType17registerConverterIdN10QtProtobuf18TransparentWrapperI{int64_t}NS1_7int_tagEEEPFS4_{int64_t}EEEbT1_EUlPKvPvE_@Qt_6 6.6.0
 (subst)_ZTSZN9QMetaType17registerConverterIdN10QtProtobuf18TransparentWrapperI{int64_t}NS1_9fixed_tagEEEPFS4_{int64_t}EEEbT1_EUlPKvPvE_@Qt_6 6.6.0
 (subst)_ZTSZN9QMetaType17registerConverterIdN10QtProtobuf18TransparentWrapperI{uint64_t}NS1_9fixed_tagEEEPFS4_{uint64_t}EEEbT1_EUlPKvPvE_@Qt_6 6.6.0
 _ZTSZN9QMetaType17registerConverterIiN10QtProtobuf18TransparentWrapperIiNS1_7int_tagEEEPFS4_iEEEbT1_EUlPKvPvE_@Qt_6 6.6.0
 _ZTSZN9QMetaType17registerConverterIiN10QtProtobuf18TransparentWrapperIiNS1_9fixed_tagEEEPFS4_iEEEbT1_EUlPKvPvE_@Qt_6 6.6.0
 _ZTSZN9QMetaType17registerConverterIiN10QtProtobuf18TransparentWrapperIjNS1_9fixed_tagEEEPFS4_jEEEbT1_EUlPKvPvE_@Qt_6 6.6.0
 (arch=!armel !armhf !i386 !powerpc)_ZTSZN9QMetaType17registerConverterIiN10QtProtobuf18TransparentWrapperIlNS1_7int_tagEEEPFS4_lEEEbT1_EUlPKvPvE_@Qt_6 6.6.1
 (arch=!armel !armhf !i386 !powerpc)_ZTSZN9QMetaType17registerConverterIiN10QtProtobuf18TransparentWrapperIlNS1_9fixed_tagEEEPFS4_lEEEbT1_EUlPKvPvE_@Qt_6 6.6.1
 (arch=!armel !armhf !i386 !powerpc)_ZTSZN9QMetaType17registerConverterIiN10QtProtobuf18TransparentWrapperImNS1_9fixed_tagEEEPFS4_mEEEbT1_EUlPKvPvE_@Qt_6 6.6.1
 (arch=armel armhf i386 powerpc)_ZTSZN9QMetaType17registerConverterIiN10QtProtobuf18TransparentWrapperIxNS1_7int_tagEEEPFS4_xEEEbT1_EUlPKvPvE_@Qt_6 6.6.1
 (arch=armel armhf i386 powerpc)_ZTSZN9QMetaType17registerConverterIiN10QtProtobuf18TransparentWrapperIxNS1_9fixed_tagEEEPFS4_xEEEbT1_EUlPKvPvE_@Qt_6 6.6.1
 (arch=armel armhf i386 powerpc)_ZTSZN9QMetaType17registerConverterIiN10QtProtobuf18TransparentWrapperIyNS1_9fixed_tagEEEPFS4_yEEEbT1_EUlPKvPvE_@Qt_6 6.6.1
 _ZTSZN9QMetaType17registerConverterIjN10QtProtobuf18TransparentWrapperIiNS1_7int_tagEEEPFS4_iEEEbT1_EUlPKvPvE_@Qt_6 6.6.0
 _ZTSZN9QMetaType17registerConverterIjN10QtProtobuf18TransparentWrapperIiNS1_9fixed_tagEEEPFS4_iEEEbT1_EUlPKvPvE_@Qt_6 6.6.0
 _ZTSZN9QMetaType17registerConverterIjN10QtProtobuf18TransparentWrapperIjNS1_9fixed_tagEEEPFS4_jEEEbT1_EUlPKvPvE_@Qt_6 6.6.0
 (arch=!armel !armhf !i386 !powerpc)_ZTSZN9QMetaType17registerConverterIjN10QtProtobuf18TransparentWrapperIlNS1_7int_tagEEEPFS4_lEEEbT1_EUlPKvPvE_@Qt_6 6.6.1
 (arch=!armel !armhf !i386 !powerpc)_ZTSZN9QMetaType17registerConverterIjN10QtProtobuf18TransparentWrapperIlNS1_9fixed_tagEEEPFS4_lEEEbT1_EUlPKvPvE_@Qt_6 6.6.1
 (arch=!armel !armhf !i386 !powerpc)_ZTSZN9QMetaType17registerConverterIjN10QtProtobuf18TransparentWrapperImNS1_9fixed_tagEEEPFS4_mEEEbT1_EUlPKvPvE_@Qt_6 6.6.1
 (arch=armel armhf i386 powerpc)_ZTSZN9QMetaType17registerConverterIjN10QtProtobuf18TransparentWrapperIxNS1_7int_tagEEEPFS4_xEEEbT1_EUlPKvPvE_@Qt_6 6.6.1
 (arch=armel armhf i386 powerpc)_ZTSZN9QMetaType17registerConverterIjN10QtProtobuf18TransparentWrapperIxNS1_9fixed_tagEEEPFS4_xEEEbT1_EUlPKvPvE_@Qt_6 6.6.1
 (arch=armel armhf i386 powerpc)_ZTSZN9QMetaType17registerConverterIjN10QtProtobuf18TransparentWrapperIyNS1_9fixed_tagEEEPFS4_yEEEbT1_EUlPKvPvE_@Qt_6 6.6.1
 (arch=!armel !armhf !i386 !powerpc)_ZTSZN9QMetaType17registerConverterIlN10QtProtobuf18TransparentWrapperIiNS1_7int_tagEEEPFS4_iEEEbT1_EUlPKvPvE_@Qt_6 6.6.1
 (arch=!armel !armhf !i386 !powerpc)_ZTSZN9QMetaType17registerConverterIlN10QtProtobuf18TransparentWrapperIiNS1_9fixed_tagEEEPFS4_iEEEbT1_EUlPKvPvE_@Qt_6 6.6.1
 (arch=!armel !armhf !i386 !powerpc)_ZTSZN9QMetaType17registerConverterIlN10QtProtobuf18TransparentWrapperIjNS1_9fixed_tagEEEPFS4_jEEEbT1_EUlPKvPvE_@Qt_6 6.6.1
 (arch=!armel !armhf !i386 !powerpc)_ZTSZN9QMetaType17registerConverterIlN10QtProtobuf18TransparentWrapperIlNS1_7int_tagEEEPFS4_lEEEbT1_EUlPKvPvE_@Qt_6 6.6.1
 (arch=!armel !armhf !i386 !powerpc)_ZTSZN9QMetaType17registerConverterIlN10QtProtobuf18TransparentWrapperIlNS1_9fixed_tagEEEPFS4_lEEEbT1_EUlPKvPvE_@Qt_6 6.6.1
 (arch=!armel !armhf !i386 !powerpc)_ZTSZN9QMetaType17registerConverterIlN10QtProtobuf18TransparentWrapperImNS1_9fixed_tagEEEPFS4_mEEEbT1_EUlPKvPvE_@Qt_6 6.6.1
 (arch=!armel !armhf !i386 !powerpc)_ZTSZN9QMetaType17registerConverterImN10QtProtobuf18TransparentWrapperIiNS1_7int_tagEEEPFS4_iEEEbT1_EUlPKvPvE_@Qt_6 6.6.1
 (arch=!armel !armhf !i386 !powerpc)_ZTSZN9QMetaType17registerConverterImN10QtProtobuf18TransparentWrapperIiNS1_9fixed_tagEEEPFS4_iEEEbT1_EUlPKvPvE_@Qt_6 6.6.1
 (arch=!armel !armhf !i386 !powerpc)_ZTSZN9QMetaType17registerConverterImN10QtProtobuf18TransparentWrapperIjNS1_9fixed_tagEEEPFS4_jEEEbT1_EUlPKvPvE_@Qt_6 6.6.1
 (arch=!armel !armhf !i386 !powerpc)_ZTSZN9QMetaType17registerConverterImN10QtProtobuf18TransparentWrapperIlNS1_7int_tagEEEPFS4_lEEEbT1_EUlPKvPvE_@Qt_6 6.6.1
 (arch=!armel !armhf !i386 !powerpc)_ZTSZN9QMetaType17registerConverterImN10QtProtobuf18TransparentWrapperIlNS1_9fixed_tagEEEPFS4_lEEEbT1_EUlPKvPvE_@Qt_6 6.6.1
 (arch=!armel !armhf !i386 !powerpc)_ZTSZN9QMetaType17registerConverterImN10QtProtobuf18TransparentWrapperImNS1_9fixed_tagEEEPFS4_mEEEbT1_EUlPKvPvE_@Qt_6 6.6.1
 _ZTSZN9QMetaType17registerConverterIxN10QtProtobuf18TransparentWrapperIiNS1_7int_tagEEEPFS4_iEEEbT1_EUlPKvPvE_@Qt_6 6.6.0
 _ZTSZN9QMetaType17registerConverterIxN10QtProtobuf18TransparentWrapperIiNS1_9fixed_tagEEEPFS4_iEEEbT1_EUlPKvPvE_@Qt_6 6.6.0
 _ZTSZN9QMetaType17registerConverterIxN10QtProtobuf18TransparentWrapperIjNS1_9fixed_tagEEEPFS4_jEEEbT1_EUlPKvPvE_@Qt_6 6.6.0
 (arch=!armel !armhf !i386 !powerpc)_ZTSZN9QMetaType17registerConverterIxN10QtProtobuf18TransparentWrapperIlNS1_7int_tagEEEPFS4_lEEEbT1_EUlPKvPvE_@Qt_6 6.6.1
 (arch=!armel !armhf !i386 !powerpc)_ZTSZN9QMetaType17registerConverterIxN10QtProtobuf18TransparentWrapperIlNS1_9fixed_tagEEEPFS4_lEEEbT1_EUlPKvPvE_@Qt_6 6.6.1
 (arch=!armel !armhf !i386 !powerpc)_ZTSZN9QMetaType17registerConverterIxN10QtProtobuf18TransparentWrapperImNS1_9fixed_tagEEEPFS4_mEEEbT1_EUlPKvPvE_@Qt_6 6.6.1
 (arch=armel armhf i386 powerpc)_ZTSZN9QMetaType17registerConverterIxN10QtProtobuf18TransparentWrapperIxNS1_7int_tagEEEPFS4_xEEEbT1_EUlPKvPvE_@Qt_6 6.6.1
 (arch=armel armhf i386 powerpc)_ZTSZN9QMetaType17registerConverterIxN10QtProtobuf18TransparentWrapperIxNS1_9fixed_tagEEEPFS4_xEEEbT1_EUlPKvPvE_@Qt_6 6.6.1
 (arch=armel armhf i386 powerpc)_ZTSZN9QMetaType17registerConverterIxN10QtProtobuf18TransparentWrapperIyNS1_9fixed_tagEEEPFS4_yEEEbT1_EUlPKvPvE_@Qt_6 6.6.1
 _ZTSZN9QMetaType17registerConverterIyN10QtProtobuf18TransparentWrapperIiNS1_7int_tagEEEPFS4_iEEEbT1_EUlPKvPvE_@Qt_6 6.6.0
 _ZTSZN9QMetaType17registerConverterIyN10QtProtobuf18TransparentWrapperIiNS1_9fixed_tagEEEPFS4_iEEEbT1_EUlPKvPvE_@Qt_6 6.6.0
 _ZTSZN9QMetaType17registerConverterIyN10QtProtobuf18TransparentWrapperIjNS1_9fixed_tagEEEPFS4_jEEEbT1_EUlPKvPvE_@Qt_6 6.6.0
 (arch=!armel !armhf !i386 !powerpc)_ZTSZN9QMetaType17registerConverterIyN10QtProtobuf18TransparentWrapperIlNS1_7int_tagEEEPFS4_lEEEbT1_EUlPKvPvE_@Qt_6 6.6.1
 (arch=!armel !armhf !i386 !powerpc)_ZTSZN9QMetaType17registerConverterIyN10QtProtobuf18TransparentWrapperIlNS1_9fixed_tagEEEPFS4_lEEEbT1_EUlPKvPvE_@Qt_6 6.6.1
 (arch=!armel !armhf !i386 !powerpc)_ZTSZN9QMetaType17registerConverterIyN10QtProtobuf18TransparentWrapperImNS1_9fixed_tagEEEPFS4_mEEEbT1_EUlPKvPvE_@Qt_6 6.6.1
 (arch=armel armhf i386 powerpc)_ZTSZN9QMetaType17registerConverterIyN10QtProtobuf18TransparentWrapperIxNS1_7int_tagEEEPFS4_xEEEbT1_EUlPKvPvE_@Qt_6 6.6.1
 (arch=armel armhf i386 powerpc)_ZTSZN9QMetaType17registerConverterIyN10QtProtobuf18TransparentWrapperIxNS1_9fixed_tagEEEPFS4_xEEEbT1_EUlPKvPvE_@Qt_6 6.6.1
 (arch=armel armhf i386 powerpc)_ZTSZN9QMetaType17registerConverterIyN10QtProtobuf18TransparentWrapperIyNS1_9fixed_tagEEEPFS4_yEEEbT1_EUlPKvPvE_@Qt_6 6.6.1
 _ZTSZN9QMetaType19registerMutableViewI5QListIN10QtProtobuf18TransparentWrapperIiNS2_7int_tagEEEE9QIterableI13QMetaSequenceEN9QtPrivate37QSequentialIterableMutableViewFunctorIS6_EEEEbT1_EUlPvSE_E_@Qt_6 6.6.0
 _ZTSZN9QMetaType19registerMutableViewI5QListIN10QtProtobuf18TransparentWrapperIiNS2_9fixed_tagEEEE9QIterableI13QMetaSequenceEN9QtPrivate37QSequentialIterableMutableViewFunctorIS6_EEEEbT1_EUlPvSE_E_@Qt_6 6.6.0
 _ZTSZN9QMetaType19registerMutableViewI5QListIN10QtProtobuf18TransparentWrapperIjNS2_9fixed_tagEEEE9QIterableI13QMetaSequenceEN9QtPrivate37QSequentialIterableMutableViewFunctorIS6_EEEEbT1_EUlPvSE_E_@Qt_6 6.6.0
 (subst)_ZTSZN9QMetaType19registerMutableViewI5QListIN10QtProtobuf18TransparentWrapperI{int64_t}NS2_7int_tagEEEE9QIterableI13QMetaSequenceEN9QtPrivate37QSequentialIterableMutableViewFunctorIS6_EEEEbT1_EUlPvSE_E_@Qt_6 6.6.0
 (subst)_ZTSZN9QMetaType19registerMutableViewI5QListIN10QtProtobuf18TransparentWrapperI{int64_t}NS2_9fixed_tagEEEE9QIterableI13QMetaSequenceEN9QtPrivate37QSequentialIterableMutableViewFunctorIS6_EEEEbT1_EUlPvSE_E_@Qt_6 6.6.0
 (subst)_ZTSZN9QMetaType19registerMutableViewI5QListIN10QtProtobuf18TransparentWrapperI{uint64_t}NS2_9fixed_tagEEEE9QIterableI13QMetaSequenceEN9QtPrivate37QSequentialIterableMutableViewFunctorIS6_EEEEbT1_EUlPvSE_E_@Qt_6 6.6.0
 _ZTSZN9QMetaType19registerMutableViewI5QListIbE9QIterableI13QMetaSequenceEN9QtPrivate37QSequentialIterableMutableViewFunctorIS2_EEEEbT1_EUlPvSA_E_@Qt_6 6.6.0
 _ZTSZN9QMetaType19registerMutableViewI5QListIdE9QIterableI13QMetaSequenceEN9QtPrivate37QSequentialIterableMutableViewFunctorIS2_EEEEbT1_EUlPvSA_E_@Qt_6 6.6.0
 _ZTSZN9QMetaType19registerMutableViewI5QListIfE9QIterableI13QMetaSequenceEN9QtPrivate37QSequentialIterableMutableViewFunctorIS2_EEEEbT1_EUlPvSA_E_@Qt_6 6.6.0
 _ZTSZN9QMetaType19registerMutableViewI5QListIiE9QIterableI13QMetaSequenceEN9QtPrivate37QSequentialIterableMutableViewFunctorIS2_EEEEbT1_EUlPvSA_E_@Qt_6 6.6.0
 _ZTSZN9QMetaType19registerMutableViewI5QListIjE9QIterableI13QMetaSequenceEN9QtPrivate37QSequentialIterableMutableViewFunctorIS2_EEEEbT1_EUlPvSA_E_@Qt_6 6.6.0
 (subst)_ZTSZN9QMetaType19registerMutableViewI5QListI{int64_t}E9QIterableI13QMetaSequenceEN9QtPrivate37QSequentialIterableMutableViewFunctorIS2_EEEEbT1_EUlPvSA_E_@Qt_6 6.6.0
 (subst)_ZTSZN9QMetaType19registerMutableViewI5QListI{uint64_t}E9QIterableI13QMetaSequenceEN9QtPrivate37QSequentialIterableMutableViewFunctorIS2_EEEEbT1_EUlPvSA_E_@Qt_6 6.6.0
 _ZTV19QProtobufSerializer@Qt_6 6.6.0
 _ZTV27QAbstractProtobufSerializer@Qt_6 6.6.0
 (optional=templinst)_ZZN9QMetaType21registerConverterImplI5QListIN10QtProtobuf18TransparentWrapperIiNS2_7int_tagEEEE9QIterableI13QMetaSequenceEEEbSt8functionIFbPKvPvEES_S_E10unregister@Qt_6 6.6.0
 (optional=templinst)_ZZN9QMetaType21registerConverterImplI5QListIN10QtProtobuf18TransparentWrapperIiNS2_9fixed_tagEEEE9QIterableI13QMetaSequenceEEEbSt8functionIFbPKvPvEES_S_E10unregister@Qt_6 6.6.0
 (optional=templinst)_ZZN9QMetaType21registerConverterImplI5QListIN10QtProtobuf18TransparentWrapperIjNS2_9fixed_tagEEEE9QIterableI13QMetaSequenceEEEbSt8functionIFbPKvPvEES_S_E10unregister@Qt_6 6.6.0
 (optional=templinst|subst)_ZZN9QMetaType21registerConverterImplI5QListIN10QtProtobuf18TransparentWrapperI{int64_t}NS2_7int_tagEEEE9QIterableI13QMetaSequenceEEEbSt8functionIFbPKvPvEES_S_E10unregister@Qt_6 6.6.0
 (optional=templinst|subst)_ZZN9QMetaType21registerConverterImplI5QListIN10QtProtobuf18TransparentWrapperI{int64_t}NS2_9fixed_tagEEEE9QIterableI13QMetaSequenceEEEbSt8functionIFbPKvPvEES_S_E10unregister@Qt_6 6.6.0
 (optional=templinst|subst)_ZZN9QMetaType21registerConverterImplI5QListIN10QtProtobuf18TransparentWrapperI{uint64_t}NS2_9fixed_tagEEEE9QIterableI13QMetaSequenceEEEbSt8functionIFbPKvPvEES_S_E10unregister@Qt_6 6.6.0
 (optional=templinst)_ZZN9QMetaType21registerConverterImplI5QListIbE9QIterableI13QMetaSequenceEEEbSt8functionIFbPKvPvEES_S_E10unregister@Qt_6 6.6.0
 (optional=templinst)_ZZN9QMetaType21registerConverterImplI5QListIdE9QIterableI13QMetaSequenceEEEbSt8functionIFbPKvPvEES_S_E10unregister@Qt_6 6.6.0
 (optional=templinst)_ZZN9QMetaType21registerConverterImplI5QListIfE9QIterableI13QMetaSequenceEEEbSt8functionIFbPKvPvEES_S_E10unregister@Qt_6 6.6.0
 (optional=templinst)_ZZN9QMetaType21registerConverterImplI5QListIiE9QIterableI13QMetaSequenceEEEbSt8functionIFbPKvPvEES_S_E10unregister@Qt_6 6.6.0
 (optional=templinst)_ZZN9QMetaType21registerConverterImplI5QListIjE9QIterableI13QMetaSequenceEEEbSt8functionIFbPKvPvEES_S_E10unregister@Qt_6 6.6.0
 (optional=templinst|subst)_ZZN9QMetaType21registerConverterImplI5QListI{int64_t}E9QIterableI13QMetaSequenceEEEbSt8functionIFbPKvPvEES_S_E10unregister@Qt_6 6.6.0
 (optional=templinst|subst)_ZZN9QMetaType21registerConverterImplI5QListI{uint64_t}E9QIterableI13QMetaSequenceEEEbSt8functionIFbPKvPvEES_S_E10unregister@Qt_6 6.6.0
 (optional=templinst)_ZZN9QMetaType21registerConverterImplIN10QtProtobuf18TransparentWrapperIiNS1_7int_tagEEE7QStringEEbSt8functionIFbPKvPvEES_S_E10unregister@Qt_6 6.6.0
 (optional=templinst)_ZZN9QMetaType21registerConverterImplIN10QtProtobuf18TransparentWrapperIiNS1_7int_tagEEEdEEbSt8functionIFbPKvPvEES_S_E10unregister@Qt_6 6.6.0
 (optional=templinst)_ZZN9QMetaType21registerConverterImplIN10QtProtobuf18TransparentWrapperIiNS1_7int_tagEEEiEEbSt8functionIFbPKvPvEES_S_E10unregister@Qt_6 6.6.0
 (optional=templinst)_ZZN9QMetaType21registerConverterImplIN10QtProtobuf18TransparentWrapperIiNS1_7int_tagEEEjEEbSt8functionIFbPKvPvEES_S_E10unregister@Qt_6 6.6.0
 (optional=templinst|arch=!armel !armhf !i386 !powerpc)_ZZN9QMetaType21registerConverterImplIN10QtProtobuf18TransparentWrapperIiNS1_7int_tagEEElEEbSt8functionIFbPKvPvEES_S_E10unregister@Qt_6 6.6.1
 (optional=templinst|arch=!armel !armhf !i386 !powerpc)_ZZN9QMetaType21registerConverterImplIN10QtProtobuf18TransparentWrapperIiNS1_7int_tagEEEmEEbSt8functionIFbPKvPvEES_S_E10unregister@Qt_6 6.6.1
 (optional=templinst)_ZZN9QMetaType21registerConverterImplIN10QtProtobuf18TransparentWrapperIiNS1_7int_tagEEExEEbSt8functionIFbPKvPvEES_S_E10unregister@Qt_6 6.6.0
 (optional=templinst)_ZZN9QMetaType21registerConverterImplIN10QtProtobuf18TransparentWrapperIiNS1_7int_tagEEEyEEbSt8functionIFbPKvPvEES_S_E10unregister@Qt_6 6.6.0
 (optional=templinst)_ZZN9QMetaType21registerConverterImplIN10QtProtobuf18TransparentWrapperIiNS1_9fixed_tagEEE7QStringEEbSt8functionIFbPKvPvEES_S_E10unregister@Qt_6 6.6.0
 (optional=templinst)_ZZN9QMetaType21registerConverterImplIN10QtProtobuf18TransparentWrapperIiNS1_9fixed_tagEEEdEEbSt8functionIFbPKvPvEES_S_E10unregister@Qt_6 6.6.0
 (optional=templinst)_ZZN9QMetaType21registerConverterImplIN10QtProtobuf18TransparentWrapperIiNS1_9fixed_tagEEEiEEbSt8functionIFbPKvPvEES_S_E10unregister@Qt_6 6.6.0
 (optional=templinst)_ZZN9QMetaType21registerConverterImplIN10QtProtobuf18TransparentWrapperIiNS1_9fixed_tagEEEjEEbSt8functionIFbPKvPvEES_S_E10unregister@Qt_6 6.6.0
 (optional=templinst|arch=!armel !armhf !i386 !powerpc)_ZZN9QMetaType21registerConverterImplIN10QtProtobuf18TransparentWrapperIiNS1_9fixed_tagEEElEEbSt8functionIFbPKvPvEES_S_E10unregister@Qt_6 6.6.1
 (optional=templinst|arch=!armel !armhf !i386 !powerpc)_ZZN9QMetaType21registerConverterImplIN10QtProtobuf18TransparentWrapperIiNS1_9fixed_tagEEEmEEbSt8functionIFbPKvPvEES_S_E10unregister@Qt_6 6.6.1
 (optional=templinst)_ZZN9QMetaType21registerConverterImplIN10QtProtobuf18TransparentWrapperIiNS1_9fixed_tagEEExEEbSt8functionIFbPKvPvEES_S_E10unregister@Qt_6 6.6.0
 (optional=templinst)_ZZN9QMetaType21registerConverterImplIN10QtProtobuf18TransparentWrapperIiNS1_9fixed_tagEEEyEEbSt8functionIFbPKvPvEES_S_E10unregister@Qt_6 6.6.0
 (optional=templinst)_ZZN9QMetaType21registerConverterImplIN10QtProtobuf18TransparentWrapperIjNS1_9fixed_tagEEE7QStringEEbSt8functionIFbPKvPvEES_S_E10unregister@Qt_6 6.6.0
 (optional=templinst)_ZZN9QMetaType21registerConverterImplIN10QtProtobuf18TransparentWrapperIjNS1_9fixed_tagEEEdEEbSt8functionIFbPKvPvEES_S_E10unregister@Qt_6 6.6.0
 (optional=templinst)_ZZN9QMetaType21registerConverterImplIN10QtProtobuf18TransparentWrapperIjNS1_9fixed_tagEEEiEEbSt8functionIFbPKvPvEES_S_E10unregister@Qt_6 6.6.0
 (optional=templinst)_ZZN9QMetaType21registerConverterImplIN10QtProtobuf18TransparentWrapperIjNS1_9fixed_tagEEEjEEbSt8functionIFbPKvPvEES_S_E10unregister@Qt_6 6.6.0
 (optional=templinst|arch=!armel !armhf !i386 !powerpc)_ZZN9QMetaType21registerConverterImplIN10QtProtobuf18TransparentWrapperIjNS1_9fixed_tagEEElEEbSt8functionIFbPKvPvEES_S_E10unregister@Qt_6 6.6.1
 (optional=templinst|arch=!armel !armhf !i386 !powerpc)_ZZN9QMetaType21registerConverterImplIN10QtProtobuf18TransparentWrapperIjNS1_9fixed_tagEEEmEEbSt8functionIFbPKvPvEES_S_E10unregister@Qt_6 6.6.1
 (optional=templinst)_ZZN9QMetaType21registerConverterImplIN10QtProtobuf18TransparentWrapperIjNS1_9fixed_tagEEExEEbSt8functionIFbPKvPvEES_S_E10unregister@Qt_6 6.6.0
 (optional=templinst)_ZZN9QMetaType21registerConverterImplIN10QtProtobuf18TransparentWrapperIjNS1_9fixed_tagEEEyEEbSt8functionIFbPKvPvEES_S_E10unregister@Qt_6 6.6.0
 (optional=templinst|arch=!armel !armhf !i386 !powerpc)_ZZN9QMetaType21registerConverterImplIN10QtProtobuf18TransparentWrapperIlNS1_7int_tagEEEiEEbSt8functionIFbPKvPvEES_S_E10unregister@Qt_6 6.6.1
 (optional=templinst|arch=!armel !armhf !i386 !powerpc)_ZZN9QMetaType21registerConverterImplIN10QtProtobuf18TransparentWrapperIlNS1_7int_tagEEEjEEbSt8functionIFbPKvPvEES_S_E10unregister@Qt_6 6.6.1
 (optional=templinst|arch=!armel !armhf !i386 !powerpc)_ZZN9QMetaType21registerConverterImplIN10QtProtobuf18TransparentWrapperIlNS1_7int_tagEEElEEbSt8functionIFbPKvPvEES_S_E10unregister@Qt_6 6.6.1
 (optional=templinst|arch=!armel !armhf !i386 !powerpc)_ZZN9QMetaType21registerConverterImplIN10QtProtobuf18TransparentWrapperIlNS1_7int_tagEEEmEEbSt8functionIFbPKvPvEES_S_E10unregister@Qt_6 6.6.1
 (optional=templinst|arch=!armel !armhf !i386 !powerpc)_ZZN9QMetaType21registerConverterImplIN10QtProtobuf18TransparentWrapperIlNS1_7int_tagEEExEEbSt8functionIFbPKvPvEES_S_E10unregister@Qt_6 6.6.1
 (optional=templinst|arch=!armel !armhf !i386 !powerpc)_ZZN9QMetaType21registerConverterImplIN10QtProtobuf18TransparentWrapperIlNS1_7int_tagEEEyEEbSt8functionIFbPKvPvEES_S_E10unregister@Qt_6 6.6.1
 (optional=templinst|arch=!armel !armhf !i386 !powerpc)_ZZN9QMetaType21registerConverterImplIN10QtProtobuf18TransparentWrapperIlNS1_9fixed_tagEEEiEEbSt8functionIFbPKvPvEES_S_E10unregister@Qt_6 6.6.1
 (optional=templinst|arch=!armel !armhf !i386 !powerpc)_ZZN9QMetaType21registerConverterImplIN10QtProtobuf18TransparentWrapperIlNS1_9fixed_tagEEEjEEbSt8functionIFbPKvPvEES_S_E10unregister@Qt_6 6.6.1
 (optional=templinst|arch=!armel !armhf !i386 !powerpc)_ZZN9QMetaType21registerConverterImplIN10QtProtobuf18TransparentWrapperIlNS1_9fixed_tagEEElEEbSt8functionIFbPKvPvEES_S_E10unregister@Qt_6 6.6.1
 (optional=templinst|arch=!armel !armhf !i386 !powerpc)_ZZN9QMetaType21registerConverterImplIN10QtProtobuf18TransparentWrapperIlNS1_9fixed_tagEEEmEEbSt8functionIFbPKvPvEES_S_E10unregister@Qt_6 6.6.1
 (optional=templinst|arch=!armel !armhf !i386 !powerpc)_ZZN9QMetaType21registerConverterImplIN10QtProtobuf18TransparentWrapperIlNS1_9fixed_tagEEExEEbSt8functionIFbPKvPvEES_S_E10unregister@Qt_6 6.6.1
 (optional=templinst|arch=!armel !armhf !i386 !powerpc)_ZZN9QMetaType21registerConverterImplIN10QtProtobuf18TransparentWrapperIlNS1_9fixed_tagEEEyEEbSt8functionIFbPKvPvEES_S_E10unregister@Qt_6 6.6.1
 (optional=templinst|arch=!armel !armhf !i386 !powerpc)_ZZN9QMetaType21registerConverterImplIN10QtProtobuf18TransparentWrapperImNS1_9fixed_tagEEEiEEbSt8functionIFbPKvPvEES_S_E10unregister@Qt_6 6.6.1
 (optional=templinst|arch=!armel !armhf !i386 !powerpc)_ZZN9QMetaType21registerConverterImplIN10QtProtobuf18TransparentWrapperImNS1_9fixed_tagEEEjEEbSt8functionIFbPKvPvEES_S_E10unregister@Qt_6 6.6.1
 (optional=templinst|arch=!armel !armhf !i386 !powerpc)_ZZN9QMetaType21registerConverterImplIN10QtProtobuf18TransparentWrapperImNS1_9fixed_tagEEElEEbSt8functionIFbPKvPvEES_S_E10unregister@Qt_6 6.6.1
 (optional=templinst|arch=!armel !armhf !i386 !powerpc)_ZZN9QMetaType21registerConverterImplIN10QtProtobuf18TransparentWrapperImNS1_9fixed_tagEEEmEEbSt8functionIFbPKvPvEES_S_E10unregister@Qt_6 6.6.1
 (optional=templinst|arch=!armel !armhf !i386 !powerpc)_ZZN9QMetaType21registerConverterImplIN10QtProtobuf18TransparentWrapperImNS1_9fixed_tagEEExEEbSt8functionIFbPKvPvEES_S_E10unregister@Qt_6 6.6.1
 (optional=templinst|arch=!armel !armhf !i386 !powerpc)_ZZN9QMetaType21registerConverterImplIN10QtProtobuf18TransparentWrapperImNS1_9fixed_tagEEEyEEbSt8functionIFbPKvPvEES_S_E10unregister@Qt_6 6.6.1
 (optional=templinst|arch=armel armhf i386 powerpc)_ZZN9QMetaType21registerConverterImplIN10QtProtobuf18TransparentWrapperIxNS1_7int_tagEEEiEEbSt8functionIFbPKvPvEES_S_E10unregister@Qt_6 6.6.1
 (optional=templinst|arch=armel armhf i386 powerpc)_ZZN9QMetaType21registerConverterImplIN10QtProtobuf18TransparentWrapperIxNS1_7int_tagEEEjEEbSt8functionIFbPKvPvEES_S_E10unregister@Qt_6 6.6.1
 (optional=templinst|arch=armel armhf i386 powerpc)_ZZN9QMetaType21registerConverterImplIN10QtProtobuf18TransparentWrapperIxNS1_7int_tagEEExEEbSt8functionIFbPKvPvEES_S_E10unregister@Qt_6 6.6.1
 (optional=templinst|arch=armel armhf i386 powerpc)_ZZN9QMetaType21registerConverterImplIN10QtProtobuf18TransparentWrapperIxNS1_7int_tagEEEyEEbSt8functionIFbPKvPvEES_S_E10unregister@Qt_6 6.6.1
 (optional=templinst|arch=armel armhf i386 powerpc)_ZZN9QMetaType21registerConverterImplIN10QtProtobuf18TransparentWrapperIxNS1_9fixed_tagEEEiEEbSt8functionIFbPKvPvEES_S_E10unregister@Qt_6 6.6.1
 (optional=templinst|arch=armel armhf i386 powerpc)_ZZN9QMetaType21registerConverterImplIN10QtProtobuf18TransparentWrapperIxNS1_9fixed_tagEEEjEEbSt8functionIFbPKvPvEES_S_E10unregister@Qt_6 6.6.1
 (optional=templinst|arch=armel armhf i386 powerpc)_ZZN9QMetaType21registerConverterImplIN10QtProtobuf18TransparentWrapperIxNS1_9fixed_tagEEExEEbSt8functionIFbPKvPvEES_S_E10unregister@Qt_6 6.6.1
 (optional=templinst|arch=armel armhf i386 powerpc)_ZZN9QMetaType21registerConverterImplIN10QtProtobuf18TransparentWrapperIxNS1_9fixed_tagEEEyEEbSt8functionIFbPKvPvEES_S_E10unregister@Qt_6 6.6.1
 (optional=templinst|arch=armel armhf i386 powerpc)_ZZN9QMetaType21registerConverterImplIN10QtProtobuf18TransparentWrapperIyNS1_9fixed_tagEEEiEEbSt8functionIFbPKvPvEES_S_E10unregister@Qt_6 6.6.1
 (optional=templinst|arch=armel armhf i386 powerpc)_ZZN9QMetaType21registerConverterImplIN10QtProtobuf18TransparentWrapperIyNS1_9fixed_tagEEEjEEbSt8functionIFbPKvPvEES_S_E10unregister@Qt_6 6.6.1
 (optional=templinst|arch=armel armhf i386 powerpc)_ZZN9QMetaType21registerConverterImplIN10QtProtobuf18TransparentWrapperIyNS1_9fixed_tagEEExEEbSt8functionIFbPKvPvEES_S_E10unregister@Qt_6 6.6.1
 (optional=templinst|arch=armel armhf i386 powerpc)_ZZN9QMetaType21registerConverterImplIN10QtProtobuf18TransparentWrapperIyNS1_9fixed_tagEEEyEEbSt8functionIFbPKvPvEES_S_E10unregister@Qt_6 6.6.1
 (optional=templinst|subst)_ZZN9QMetaType21registerConverterImplIN10QtProtobuf18TransparentWrapperI{int64_t}NS1_7int_tagEEE7QStringEEbSt8functionIFbPKvPvEES_S_E10unregister@Qt_6 6.6.0
 (optional=templinst|subst)_ZZN9QMetaType21registerConverterImplIN10QtProtobuf18TransparentWrapperI{int64_t}NS1_7int_tagEEEdEEbSt8functionIFbPKvPvEES_S_E10unregister@Qt_6 6.6.0
 (optional=templinst|subst)_ZZN9QMetaType21registerConverterImplIN10QtProtobuf18TransparentWrapperI{int64_t}NS1_9fixed_tagEEE7QStringEEbSt8functionIFbPKvPvEES_S_E10unregister@Qt_6 6.6.0
 (optional=templinst|subst)_ZZN9QMetaType21registerConverterImplIN10QtProtobuf18TransparentWrapperI{int64_t}NS1_9fixed_tagEEEdEEbSt8functionIFbPKvPvEES_S_E10unregister@Qt_6 6.6.0
 (optional=templinst|subst)_ZZN9QMetaType21registerConverterImplIN10QtProtobuf18TransparentWrapperI{uint64_t}NS1_9fixed_tagEEE7QStringEEbSt8functionIFbPKvPvEES_S_E10unregister@Qt_6 6.6.0
 (optional=templinst|subst)_ZZN9QMetaType21registerConverterImplIN10QtProtobuf18TransparentWrapperI{uint64_t}NS1_9fixed_tagEEEdEEbSt8functionIFbPKvPvEES_S_E10unregister@Qt_6 6.6.0
 (optional=templinst)_ZZN9QMetaType21registerConverterImplIdN10QtProtobuf18TransparentWrapperIiNS1_7int_tagEEEEEbSt8functionIFbPKvPvEES_S_E10unregister@Qt_6 6.6.0
 (optional=templinst)_ZZN9QMetaType21registerConverterImplIdN10QtProtobuf18TransparentWrapperIiNS1_9fixed_tagEEEEEbSt8functionIFbPKvPvEES_S_E10unregister@Qt_6 6.6.0
 (optional=templinst)_ZZN9QMetaType21registerConverterImplIdN10QtProtobuf18TransparentWrapperIjNS1_9fixed_tagEEEEEbSt8functionIFbPKvPvEES_S_E10unregister@Qt_6 6.6.0
 (optional=templinst|subst)_ZZN9QMetaType21registerConverterImplIdN10QtProtobuf18TransparentWrapperI{int64_t}NS1_7int_tagEEEEEbSt8functionIFbPKvPvEES_S_E10unregister@Qt_6 6.6.0
 (optional=templinst|subst)_ZZN9QMetaType21registerConverterImplIdN10QtProtobuf18TransparentWrapperI{int64_t}NS1_9fixed_tagEEEEEbSt8functionIFbPKvPvEES_S_E10unregister@Qt_6 6.6.0
 (optional=templinst|subst)_ZZN9QMetaType21registerConverterImplIdN10QtProtobuf18TransparentWrapperI{uint64_t}NS1_9fixed_tagEEEEEbSt8functionIFbPKvPvEES_S_E10unregister@Qt_6 6.6.0
 (optional=templinst)_ZZN9QMetaType21registerConverterImplIiN10QtProtobuf18TransparentWrapperIiNS1_7int_tagEEEEEbSt8functionIFbPKvPvEES_S_E10unregister@Qt_6 6.6.0
 (optional=templinst)_ZZN9QMetaType21registerConverterImplIiN10QtProtobuf18TransparentWrapperIiNS1_9fixed_tagEEEEEbSt8functionIFbPKvPvEES_S_E10unregister@Qt_6 6.6.0
 (optional=templinst)_ZZN9QMetaType21registerConverterImplIiN10QtProtobuf18TransparentWrapperIjNS1_9fixed_tagEEEEEbSt8functionIFbPKvPvEES_S_E10unregister@Qt_6 6.6.0
 (optional=templinst|arch=!armel !armhf !i386 !powerpc)_ZZN9QMetaType21registerConverterImplIiN10QtProtobuf18TransparentWrapperIlNS1_7int_tagEEEEEbSt8functionIFbPKvPvEES_S_E10unregister@Qt_6 6.6.1
 (optional=templinst|arch=!armel !armhf !i386 !powerpc)_ZZN9QMetaType21registerConverterImplIiN10QtProtobuf18TransparentWrapperIlNS1_9fixed_tagEEEEEbSt8functionIFbPKvPvEES_S_E10unregister@Qt_6 6.6.1
 (optional=templinst|arch=!armel !armhf !i386 !powerpc)_ZZN9QMetaType21registerConverterImplIiN10QtProtobuf18TransparentWrapperImNS1_9fixed_tagEEEEEbSt8functionIFbPKvPvEES_S_E10unregister@Qt_6 6.6.1
 (optional=templinst|arch=armel armhf i386 powerpc)_ZZN9QMetaType21registerConverterImplIiN10QtProtobuf18TransparentWrapperIxNS1_7int_tagEEEEEbSt8functionIFbPKvPvEES_S_E10unregister@Qt_6 6.6.1
 (optional=templinst|arch=armel armhf i386 powerpc)_ZZN9QMetaType21registerConverterImplIiN10QtProtobuf18TransparentWrapperIxNS1_9fixed_tagEEEEEbSt8functionIFbPKvPvEES_S_E10unregister@Qt_6 6.6.1
 (optional=templinst|arch=armel armhf i386 powerpc)_ZZN9QMetaType21registerConverterImplIiN10QtProtobuf18TransparentWrapperIyNS1_9fixed_tagEEEEEbSt8functionIFbPKvPvEES_S_E10unregister@Qt_6 6.6.1
 (optional=templinst)_ZZN9QMetaType21registerConverterImplIjN10QtProtobuf18TransparentWrapperIiNS1_7int_tagEEEEEbSt8functionIFbPKvPvEES_S_E10unregister@Qt_6 6.6.0
 (optional=templinst)_ZZN9QMetaType21registerConverterImplIjN10QtProtobuf18TransparentWrapperIiNS1_9fixed_tagEEEEEbSt8functionIFbPKvPvEES_S_E10unregister@Qt_6 6.6.0
 (optional=templinst)_ZZN9QMetaType21registerConverterImplIjN10QtProtobuf18TransparentWrapperIjNS1_9fixed_tagEEEEEbSt8functionIFbPKvPvEES_S_E10unregister@Qt_6 6.6.0
 (optional=templinst|arch=!armel !armhf !i386 !powerpc)_ZZN9QMetaType21registerConverterImplIjN10QtProtobuf18TransparentWrapperIlNS1_7int_tagEEEEEbSt8functionIFbPKvPvEES_S_E10unregister@Qt_6 6.6.1
 (optional=templinst|arch=!armel !armhf !i386 !powerpc)_ZZN9QMetaType21registerConverterImplIjN10QtProtobuf18TransparentWrapperIlNS1_9fixed_tagEEEEEbSt8functionIFbPKvPvEES_S_E10unregister@Qt_6 6.6.1
 (optional=templinst|arch=!armel !armhf !i386 !powerpc)_ZZN9QMetaType21registerConverterImplIjN10QtProtobuf18TransparentWrapperImNS1_9fixed_tagEEEEEbSt8functionIFbPKvPvEES_S_E10unregister@Qt_6 6.6.1
 (optional=templinst|arch=armel armhf i386 powerpc)_ZZN9QMetaType21registerConverterImplIjN10QtProtobuf18TransparentWrapperIxNS1_7int_tagEEEEEbSt8functionIFbPKvPvEES_S_E10unregister@Qt_6 6.6.1
 (optional=templinst|arch=armel armhf i386 powerpc)_ZZN9QMetaType21registerConverterImplIjN10QtProtobuf18TransparentWrapperIxNS1_9fixed_tagEEEEEbSt8functionIFbPKvPvEES_S_E10unregister@Qt_6 6.6.1
 (optional=templinst|arch=armel armhf i386 powerpc)_ZZN9QMetaType21registerConverterImplIjN10QtProtobuf18TransparentWrapperIyNS1_9fixed_tagEEEEEbSt8functionIFbPKvPvEES_S_E10unregister@Qt_6 6.6.1
 (optional=templinst|arch=!armel !armhf !i386 !powerpc)_ZZN9QMetaType21registerConverterImplIlN10QtProtobuf18TransparentWrapperIiNS1_7int_tagEEEEEbSt8functionIFbPKvPvEES_S_E10unregister@Qt_6 6.6.1
 (optional=templinst|arch=!armel !armhf !i386 !powerpc)_ZZN9QMetaType21registerConverterImplIlN10QtProtobuf18TransparentWrapperIiNS1_9fixed_tagEEEEEbSt8functionIFbPKvPvEES_S_E10unregister@Qt_6 6.6.1
 (optional=templinst|arch=!armel !armhf !i386 !powerpc)_ZZN9QMetaType21registerConverterImplIlN10QtProtobuf18TransparentWrapperIjNS1_9fixed_tagEEEEEbSt8functionIFbPKvPvEES_S_E10unregister@Qt_6 6.6.1
 (optional=templinst|arch=!armel !armhf !i386 !powerpc)_ZZN9QMetaType21registerConverterImplIlN10QtProtobuf18TransparentWrapperIlNS1_7int_tagEEEEEbSt8functionIFbPKvPvEES_S_E10unregister@Qt_6 6.6.1
 (optional=templinst|arch=!armel !armhf !i386 !powerpc)_ZZN9QMetaType21registerConverterImplIlN10QtProtobuf18TransparentWrapperIlNS1_9fixed_tagEEEEEbSt8functionIFbPKvPvEES_S_E10unregister@Qt_6 6.6.1
 (optional=templinst|arch=!armel !armhf !i386 !powerpc)_ZZN9QMetaType21registerConverterImplIlN10QtProtobuf18TransparentWrapperImNS1_9fixed_tagEEEEEbSt8functionIFbPKvPvEES_S_E10unregister@Qt_6 6.6.1
 (optional=templinst|arch=!armel !armhf !i386 !powerpc)_ZZN9QMetaType21registerConverterImplImN10QtProtobuf18TransparentWrapperIiNS1_7int_tagEEEEEbSt8functionIFbPKvPvEES_S_E10unregister@Qt_6 6.6.1
 (optional=templinst|arch=!armel !armhf !i386 !powerpc)_ZZN9QMetaType21registerConverterImplImN10QtProtobuf18TransparentWrapperIiNS1_9fixed_tagEEEEEbSt8functionIFbPKvPvEES_S_E10unregister@Qt_6 6.6.1
 (optional=templinst|arch=!armel !armhf !i386 !powerpc)_ZZN9QMetaType21registerConverterImplImN10QtProtobuf18TransparentWrapperIjNS1_9fixed_tagEEEEEbSt8functionIFbPKvPvEES_S_E10unregister@Qt_6 6.6.1
 (optional=templinst|arch=!armel !armhf !i386 !powerpc)_ZZN9QMetaType21registerConverterImplImN10QtProtobuf18TransparentWrapperIlNS1_7int_tagEEEEEbSt8functionIFbPKvPvEES_S_E10unregister@Qt_6 6.6.1
 (optional=templinst|arch=!armel !armhf !i386 !powerpc)_ZZN9QMetaType21registerConverterImplImN10QtProtobuf18TransparentWrapperIlNS1_9fixed_tagEEEEEbSt8functionIFbPKvPvEES_S_E10unregister@Qt_6 6.6.1
 (optional=templinst|arch=!armel !armhf !i386 !powerpc)_ZZN9QMetaType21registerConverterImplImN10QtProtobuf18TransparentWrapperImNS1_9fixed_tagEEEEEbSt8functionIFbPKvPvEES_S_E10unregister@Qt_6 6.6.1
 (optional=templinst)_ZZN9QMetaType21registerConverterImplIxN10QtProtobuf18TransparentWrapperIiNS1_7int_tagEEEEEbSt8functionIFbPKvPvEES_S_E10unregister@Qt_6 6.6.0
 (optional=templinst)_ZZN9QMetaType21registerConverterImplIxN10QtProtobuf18TransparentWrapperIiNS1_9fixed_tagEEEEEbSt8functionIFbPKvPvEES_S_E10unregister@Qt_6 6.6.0
 (optional=templinst)_ZZN9QMetaType21registerConverterImplIxN10QtProtobuf18TransparentWrapperIjNS1_9fixed_tagEEEEEbSt8functionIFbPKvPvEES_S_E10unregister@Qt_6 6.6.0
 (optional=templinst|arch=!armel !armhf !i386 !powerpc)_ZZN9QMetaType21registerConverterImplIxN10QtProtobuf18TransparentWrapperIlNS1_7int_tagEEEEEbSt8functionIFbPKvPvEES_S_E10unregister@Qt_6 6.6.1
 (optional=templinst|arch=!armel !armhf !i386 !powerpc)_ZZN9QMetaType21registerConverterImplIxN10QtProtobuf18TransparentWrapperIlNS1_9fixed_tagEEEEEbSt8functionIFbPKvPvEES_S_E10unregister@Qt_6 6.6.1
 (optional=templinst|arch=!armel !armhf !i386 !powerpc)_ZZN9QMetaType21registerConverterImplIxN10QtProtobuf18TransparentWrapperImNS1_9fixed_tagEEEEEbSt8functionIFbPKvPvEES_S_E10unregister@Qt_6 6.6.1
 (optional=templinst|arch=armel armhf i386 powerpc)_ZZN9QMetaType21registerConverterImplIxN10QtProtobuf18TransparentWrapperIxNS1_7int_tagEEEEEbSt8functionIFbPKvPvEES_S_E10unregister@Qt_6 6.6.1
 (optional=templinst|arch=armel armhf i386 powerpc)_ZZN9QMetaType21registerConverterImplIxN10QtProtobuf18TransparentWrapperIxNS1_9fixed_tagEEEEEbSt8functionIFbPKvPvEES_S_E10unregister@Qt_6 6.6.1
 (optional=templinst|arch=armel armhf i386 powerpc)_ZZN9QMetaType21registerConverterImplIxN10QtProtobuf18TransparentWrapperIyNS1_9fixed_tagEEEEEbSt8functionIFbPKvPvEES_S_E10unregister@Qt_6 6.6.1
 (optional=templinst)_ZZN9QMetaType21registerConverterImplIyN10QtProtobuf18TransparentWrapperIiNS1_7int_tagEEEEEbSt8functionIFbPKvPvEES_S_E10unregister@Qt_6 6.6.0
 (optional=templinst)_ZZN9QMetaType21registerConverterImplIyN10QtProtobuf18TransparentWrapperIiNS1_9fixed_tagEEEEEbSt8functionIFbPKvPvEES_S_E10unregister@Qt_6 6.6.0
 (optional=templinst)_ZZN9QMetaType21registerConverterImplIyN10QtProtobuf18TransparentWrapperIjNS1_9fixed_tagEEEEEbSt8functionIFbPKvPvEES_S_E10unregister@Qt_6 6.6.0
 (optional=templinst|arch=!armel !armhf !i386 !powerpc)_ZZN9QMetaType21registerConverterImplIyN10QtProtobuf18TransparentWrapperIlNS1_7int_tagEEEEEbSt8functionIFbPKvPvEES_S_E10unregister@Qt_6 6.6.1
 (optional=templinst|arch=!armel !armhf !i386 !powerpc)_ZZN9QMetaType21registerConverterImplIyN10QtProtobuf18TransparentWrapperIlNS1_9fixed_tagEEEEEbSt8functionIFbPKvPvEES_S_E10unregister@Qt_6 6.6.1
 (optional=templinst|arch=!armel !armhf !i386 !powerpc)_ZZN9QMetaType21registerConverterImplIyN10QtProtobuf18TransparentWrapperImNS1_9fixed_tagEEEEEbSt8functionIFbPKvPvEES_S_E10unregister@Qt_6 6.6.1
 (optional=templinst|arch=armel armhf i386 powerpc)_ZZN9QMetaType21registerConverterImplIyN10QtProtobuf18TransparentWrapperIxNS1_7int_tagEEEEEbSt8functionIFbPKvPvEES_S_E10unregister@Qt_6 6.6.1
 (optional=templinst|arch=armel armhf i386 powerpc)_ZZN9QMetaType21registerConverterImplIyN10QtProtobuf18TransparentWrapperIxNS1_9fixed_tagEEEEEbSt8functionIFbPKvPvEES_S_E10unregister@Qt_6 6.6.1
 (optional=templinst|arch=armel armhf i386 powerpc)_ZZN9QMetaType21registerConverterImplIyN10QtProtobuf18TransparentWrapperIyNS1_9fixed_tagEEEEEbSt8functionIFbPKvPvEES_S_E10unregister@Qt_6 6.6.1
 (optional=templinst)_ZZN9QMetaType23registerMutableViewImplI5QListIN10QtProtobuf18TransparentWrapperIiNS2_7int_tagEEEE9QIterableI13QMetaSequenceEEEbSt8functionIFbPvSB_EES_S_E10unregister@Qt_6 6.6.0
 (optional=templinst)_ZZN9QMetaType23registerMutableViewImplI5QListIN10QtProtobuf18TransparentWrapperIiNS2_9fixed_tagEEEE9QIterableI13QMetaSequenceEEEbSt8functionIFbPvSB_EES_S_E10unregister@Qt_6 6.6.0
 (optional=templinst)_ZZN9QMetaType23registerMutableViewImplI5QListIN10QtProtobuf18TransparentWrapperIjNS2_9fixed_tagEEEE9QIterableI13QMetaSequenceEEEbSt8functionIFbPvSB_EES_S_E10unregister@Qt_6 6.6.0
 (optional=templinst|subst)_ZZN9QMetaType23registerMutableViewImplI5QListIN10QtProtobuf18TransparentWrapperI{int64_t}NS2_7int_tagEEEE9QIterableI13QMetaSequenceEEEbSt8functionIFbPvSB_EES_S_E10unregister@Qt_6 6.6.0
 (optional=templinst|subst)_ZZN9QMetaType23registerMutableViewImplI5QListIN10QtProtobuf18TransparentWrapperI{int64_t}NS2_9fixed_tagEEEE9QIterableI13QMetaSequenceEEEbSt8functionIFbPvSB_EES_S_E10unregister@Qt_6 6.6.0
 (optional=templinst|subst)_ZZN9QMetaType23registerMutableViewImplI5QListIN10QtProtobuf18TransparentWrapperI{uint64_t}NS2_9fixed_tagEEEE9QIterableI13QMetaSequenceEEEbSt8functionIFbPvSB_EES_S_E10unregister@Qt_6 6.6.0
 (optional=templinst)_ZZN9QMetaType23registerMutableViewImplI5QListIbE9QIterableI13QMetaSequenceEEEbSt8functionIFbPvS7_EES_S_E10unregister@Qt_6 6.6.0
 (optional=templinst)_ZZN9QMetaType23registerMutableViewImplI5QListIdE9QIterableI13QMetaSequenceEEEbSt8functionIFbPvS7_EES_S_E10unregister@Qt_6 6.6.0
 (optional=templinst)_ZZN9QMetaType23registerMutableViewImplI5QListIfE9QIterableI13QMetaSequenceEEEbSt8functionIFbPvS7_EES_S_E10unregister@Qt_6 6.6.0
 (optional=templinst)_ZZN9QMetaType23registerMutableViewImplI5QListIiE9QIterableI13QMetaSequenceEEEbSt8functionIFbPvS7_EES_S_E10unregister@Qt_6 6.6.0
 (optional=templinst)_ZZN9QMetaType23registerMutableViewImplI5QListIjE9QIterableI13QMetaSequenceEEEbSt8functionIFbPvS7_EES_S_E10unregister@Qt_6 6.6.0
 (optional=templinst|subst)_ZZN9QMetaType23registerMutableViewImplI5QListI{int64_t}E9QIterableI13QMetaSequenceEEEbSt8functionIFbPvS7_EES_S_E10unregister@Qt_6 6.6.0
 (optional=templinst|subst)_ZZN9QMetaType23registerMutableViewImplI5QListI{uint64_t}E9QIterableI13QMetaSequenceEEEbSt8functionIFbPvS7_EES_S_E10unregister@Qt_6 6.6.0
