# SymbolsHelper-Confirmed: 6.8.0 armel armhf i386 powerpc
libQt6ProtobufQtGuiTypes.so.6 libqt6protobufqtguitypes6 #MINVER#
* Build-Depends-Package: qt6-grpc-dev
 Qt_6@Qt_6 6.8.0
 Qt_6_PRIVATE_API@Qt_6_PRIVATE_API 6.8.0
 _ZGVZN9QMetaType21registerConverterImplI5QListIN17QtProtobufPrivate5QtGui10QMatrix4x4EE9QIterableI13QMetaSequenceEEEbSt8functionIFbPKvPvEES_S_E10unregister@Qt_6 6.8.0
 _ZGVZN9QMetaType21registerConverterImplI5QListIN17QtProtobufPrivate5QtGui10QTransformEE9QIterableI13QMetaSequenceEEEbSt8functionIFbPKvPvEES_S_E10unregister@Qt_6 6.8.0
 _ZGVZN9QMetaType21registerConverterImplI5QListIN17QtProtobufPrivate5QtGui11QQuaternionEE9QIterableI13QMetaSequenceEEEbSt8functionIFbPKvPvEES_S_E10unregister@Qt_6 6.8.0
 _ZGVZN9QMetaType21registerConverterImplI5QListIN17QtProtobufPrivate5QtGui6QColorEE9QIterableI13QMetaSequenceEEEbSt8functionIFbPKvPvEES_S_E10unregister@Qt_6 6.8.0
 _ZGVZN9QMetaType21registerConverterImplI5QListIN17QtProtobufPrivate5QtGui6QImageEE9QIterableI13QMetaSequenceEEEbSt8functionIFbPKvPvEES_S_E10unregister@Qt_6 6.8.0
 _ZGVZN9QMetaType21registerConverterImplI5QListIN17QtProtobufPrivate5QtGui7QRgba64EE9QIterableI13QMetaSequenceEEEbSt8functionIFbPKvPvEES_S_E10unregister@Qt_6 6.8.0
 _ZGVZN9QMetaType21registerConverterImplI5QListIN17QtProtobufPrivate5QtGui9QVector2DEE9QIterableI13QMetaSequenceEEEbSt8functionIFbPKvPvEES_S_E10unregister@Qt_6 6.8.0
 _ZGVZN9QMetaType21registerConverterImplI5QListIN17QtProtobufPrivate5QtGui9QVector3DEE9QIterableI13QMetaSequenceEEEbSt8functionIFbPKvPvEES_S_E10unregister@Qt_6 6.8.0
 _ZGVZN9QMetaType21registerConverterImplI5QListIN17QtProtobufPrivate5QtGui9QVector4DEE9QIterableI13QMetaSequenceEEEbSt8functionIFbPKvPvEES_S_E10unregister@Qt_6 6.8.0
 _ZGVZN9QMetaType21registerConverterImplI5QListIdE9QIterableI13QMetaSequenceEEEbSt8functionIFbPKvPvEES_S_E10unregister@Qt_6 6.8.0
 _ZGVZN9QMetaType21registerConverterImplI5QListIfE9QIterableI13QMetaSequenceEEEbSt8functionIFbPKvPvEES_S_E10unregister@Qt_6 6.8.0
 _ZGVZN9QMetaType23registerMutableViewImplI5QListIN17QtProtobufPrivate5QtGui10QMatrix4x4EE9QIterableI13QMetaSequenceEEEbSt8functionIFbPvSA_EES_S_E10unregister@Qt_6 6.8.0
 _ZGVZN9QMetaType23registerMutableViewImplI5QListIN17QtProtobufPrivate5QtGui10QTransformEE9QIterableI13QMetaSequenceEEEbSt8functionIFbPvSA_EES_S_E10unregister@Qt_6 6.8.0
 _ZGVZN9QMetaType23registerMutableViewImplI5QListIN17QtProtobufPrivate5QtGui11QQuaternionEE9QIterableI13QMetaSequenceEEEbSt8functionIFbPvSA_EES_S_E10unregister@Qt_6 6.8.0
 _ZGVZN9QMetaType23registerMutableViewImplI5QListIN17QtProtobufPrivate5QtGui6QColorEE9QIterableI13QMetaSequenceEEEbSt8functionIFbPvSA_EES_S_E10unregister@Qt_6 6.8.0
 _ZGVZN9QMetaType23registerMutableViewImplI5QListIN17QtProtobufPrivate5QtGui6QImageEE9QIterableI13QMetaSequenceEEEbSt8functionIFbPvSA_EES_S_E10unregister@Qt_6 6.8.0
 _ZGVZN9QMetaType23registerMutableViewImplI5QListIN17QtProtobufPrivate5QtGui7QRgba64EE9QIterableI13QMetaSequenceEEEbSt8functionIFbPvSA_EES_S_E10unregister@Qt_6 6.8.0
 _ZGVZN9QMetaType23registerMutableViewImplI5QListIN17QtProtobufPrivate5QtGui9QVector2DEE9QIterableI13QMetaSequenceEEEbSt8functionIFbPvSA_EES_S_E10unregister@Qt_6 6.8.0
 _ZGVZN9QMetaType23registerMutableViewImplI5QListIN17QtProtobufPrivate5QtGui9QVector3DEE9QIterableI13QMetaSequenceEEEbSt8functionIFbPvSA_EES_S_E10unregister@Qt_6 6.8.0
 _ZGVZN9QMetaType23registerMutableViewImplI5QListIN17QtProtobufPrivate5QtGui9QVector4DEE9QIterableI13QMetaSequenceEEEbSt8functionIFbPvSA_EES_S_E10unregister@Qt_6 6.8.0
 _ZGVZN9QMetaType23registerMutableViewImplI5QListIdE9QIterableI13QMetaSequenceEEEbSt8functionIFbPvS7_EES_S_E10unregister@Qt_6 6.8.0
 _ZGVZN9QMetaType23registerMutableViewImplI5QListIfE9QIterableI13QMetaSequenceEEEbSt8functionIFbPvS7_EES_S_E10unregister@Qt_6 6.8.0
 _ZN10QtProtobuf27qRegisterProtobufQtGuiTypesEv@Qt_6 6.8.0
 _ZN13QMetaSequence12MetaSequenceI5QListIN17QtProtobufPrivate5QtGui10QMatrix4x4EEE5valueE@Qt_6 6.8.0
 _ZN13QMetaSequence12MetaSequenceI5QListIN17QtProtobufPrivate5QtGui10QTransformEEE5valueE@Qt_6 6.8.0
 _ZN13QMetaSequence12MetaSequenceI5QListIN17QtProtobufPrivate5QtGui11QQuaternionEEE5valueE@Qt_6 6.8.0
 _ZN13QMetaSequence12MetaSequenceI5QListIN17QtProtobufPrivate5QtGui6QColorEEE5valueE@Qt_6 6.8.0
 _ZN13QMetaSequence12MetaSequenceI5QListIN17QtProtobufPrivate5QtGui6QImageEEE5valueE@Qt_6 6.8.0
 _ZN13QMetaSequence12MetaSequenceI5QListIN17QtProtobufPrivate5QtGui7QRgba64EEE5valueE@Qt_6 6.8.0
 _ZN13QMetaSequence12MetaSequenceI5QListIN17QtProtobufPrivate5QtGui9QVector2DEEE5valueE@Qt_6 6.8.0
 _ZN13QMetaSequence12MetaSequenceI5QListIN17QtProtobufPrivate5QtGui9QVector3DEEE5valueE@Qt_6 6.8.0
 _ZN13QMetaSequence12MetaSequenceI5QListIN17QtProtobufPrivate5QtGui9QVector4DEEE5valueE@Qt_6 6.8.0
 _ZN13QMetaSequence12MetaSequenceI5QListIdEE5valueE@Qt_6 6.8.0
 _ZN13QMetaSequence12MetaSequenceI5QListIfEE5valueE@Qt_6 6.8.0
 _ZN17QtProtobufPrivate5QtGui10QMatrix4x413registerTypesEv@Qt_6 6.8.0
 _ZN17QtProtobufPrivate5QtGui10QMatrix4x416propertyOrderingE@Qt_6 6.8.0
 _ZN17QtProtobufPrivate5QtGui10QMatrix4x416staticMetaObjectE@Qt_6 6.8.0
 _ZN17QtProtobufPrivate5QtGui10QMatrix4x41mEv@Qt_6 6.8.0
 _ZN17QtProtobufPrivate5QtGui10QMatrix4x44setMERK5QListIfE@Qt_6 6.8.0
 _ZN17QtProtobufPrivate5QtGui10QMatrix4x4C1EOS1_@Qt_6 6.8.0
 _ZN17QtProtobufPrivate5QtGui10QMatrix4x4C1ERKS1_@Qt_6 6.8.0
 _ZN17QtProtobufPrivate5QtGui10QMatrix4x4C1Ev@Qt_6 6.8.0
 _ZN17QtProtobufPrivate5QtGui10QMatrix4x4C2EOS1_@Qt_6 6.8.0
 _ZN17QtProtobufPrivate5QtGui10QMatrix4x4C2ERKS1_@Qt_6 6.8.0
 _ZN17QtProtobufPrivate5QtGui10QMatrix4x4C2Ev@Qt_6 6.8.0
 _ZN17QtProtobufPrivate5QtGui10QMatrix4x4D1Ev@Qt_6 6.8.0
 _ZN17QtProtobufPrivate5QtGui10QMatrix4x4D2Ev@Qt_6 6.8.0
 _ZN17QtProtobufPrivate5QtGui10QMatrix4x4aSEOS1_@Qt_6 6.8.0
 _ZN17QtProtobufPrivate5QtGui10QMatrix4x4aSERKS1_@Qt_6 6.8.0
 _ZN17QtProtobufPrivate5QtGui10QTransform13registerTypesEv@Qt_6 6.8.0
 _ZN17QtProtobufPrivate5QtGui10QTransform16propertyOrderingE@Qt_6 6.8.0
 _ZN17QtProtobufPrivate5QtGui10QTransform16staticMetaObjectE@Qt_6 6.8.0
 _ZN17QtProtobufPrivate5QtGui10QTransform1mEv@Qt_6 6.8.0
 _ZN17QtProtobufPrivate5QtGui10QTransform4setMERK5QListIdE@Qt_6 6.8.0
 _ZN17QtProtobufPrivate5QtGui10QTransformC1EOS1_@Qt_6 6.8.0
 _ZN17QtProtobufPrivate5QtGui10QTransformC1ERKS1_@Qt_6 6.8.0
 _ZN17QtProtobufPrivate5QtGui10QTransformC1Ev@Qt_6 6.8.0
 _ZN17QtProtobufPrivate5QtGui10QTransformC2EOS1_@Qt_6 6.8.0
 _ZN17QtProtobufPrivate5QtGui10QTransformC2ERKS1_@Qt_6 6.8.0
 _ZN17QtProtobufPrivate5QtGui10QTransformC2Ev@Qt_6 6.8.0
 _ZN17QtProtobufPrivate5QtGui10QTransformD1Ev@Qt_6 6.8.0
 _ZN17QtProtobufPrivate5QtGui10QTransformD2Ev@Qt_6 6.8.0
 _ZN17QtProtobufPrivate5QtGui10QTransformaSEOS1_@Qt_6 6.8.0
 _ZN17QtProtobufPrivate5QtGui10QTransformaSERKS1_@Qt_6 6.8.0
 _ZN17QtProtobufPrivate5QtGui11QQuaternion13registerTypesEv@Qt_6 6.8.0
 _ZN17QtProtobufPrivate5QtGui11QQuaternion16propertyOrderingE@Qt_6 6.8.0
 _ZN17QtProtobufPrivate5QtGui11QQuaternion16staticMetaObjectE@Qt_6 6.8.0
 _ZN17QtProtobufPrivate5QtGui11QQuaternion4setXERKf@Qt_6 6.8.0
 _ZN17QtProtobufPrivate5QtGui11QQuaternion4setYERKf@Qt_6 6.8.0
 _ZN17QtProtobufPrivate5QtGui11QQuaternion4setZERKf@Qt_6 6.8.0
 _ZN17QtProtobufPrivate5QtGui11QQuaternion9setScalarERKf@Qt_6 6.8.0
 _ZN17QtProtobufPrivate5QtGui11QQuaternionC1EOS1_@Qt_6 6.8.0
 _ZN17QtProtobufPrivate5QtGui11QQuaternionC1ERKS1_@Qt_6 6.8.0
 _ZN17QtProtobufPrivate5QtGui11QQuaternionC1Ev@Qt_6 6.8.0
 _ZN17QtProtobufPrivate5QtGui11QQuaternionC2EOS1_@Qt_6 6.8.0
 _ZN17QtProtobufPrivate5QtGui11QQuaternionC2ERKS1_@Qt_6 6.8.0
 _ZN17QtProtobufPrivate5QtGui11QQuaternionC2Ev@Qt_6 6.8.0
 _ZN17QtProtobufPrivate5QtGui11QQuaternionD1Ev@Qt_6 6.8.0
 _ZN17QtProtobufPrivate5QtGui11QQuaternionD2Ev@Qt_6 6.8.0
 _ZN17QtProtobufPrivate5QtGui11QQuaternionaSEOS1_@Qt_6 6.8.0
 _ZN17QtProtobufPrivate5QtGui11QQuaternionaSERKS1_@Qt_6 6.8.0
 _ZN17QtProtobufPrivate5QtGui6QColor10clearColorEv@Qt_6 6.8.0
 _ZN17QtProtobufPrivate5QtGui6QColor11setRgba64_pEPNS0_7QRgba64E@Qt_6 6.8.0
 _ZN17QtProtobufPrivate5QtGui6QColor13registerTypesEv@Qt_6 6.8.0
 _ZN17QtProtobufPrivate5QtGui6QColor16propertyOrderingE@Qt_6 6.8.0
 _ZN17QtProtobufPrivate5QtGui6QColor16staticMetaObjectE@Qt_6 6.8.0
 _ZN17QtProtobufPrivate5QtGui6QColor7setRgbaERKj@Qt_6 6.8.0
 _ZN17QtProtobufPrivate5QtGui6QColor9setRgba64ERKNS0_7QRgba64E@Qt_6 6.8.0
 _ZN17QtProtobufPrivate5QtGui6QColor9setRgba_pEj@Qt_6 6.8.0
 _ZN17QtProtobufPrivate5QtGui6QColorC1EOS1_@Qt_6 6.8.0
 _ZN17QtProtobufPrivate5QtGui6QColorC1ERKS1_@Qt_6 6.8.0
 _ZN17QtProtobufPrivate5QtGui6QColorC1Ev@Qt_6 6.8.0
 _ZN17QtProtobufPrivate5QtGui6QColorC2EOS1_@Qt_6 6.8.0
 _ZN17QtProtobufPrivate5QtGui6QColorC2ERKS1_@Qt_6 6.8.0
 _ZN17QtProtobufPrivate5QtGui6QColorC2Ev@Qt_6 6.8.0
 _ZN17QtProtobufPrivate5QtGui6QColorD1Ev@Qt_6 6.8.0
 _ZN17QtProtobufPrivate5QtGui6QColorD2Ev@Qt_6 6.8.0
 _ZN17QtProtobufPrivate5QtGui6QColoraSEOS1_@Qt_6 6.8.0
 _ZN17QtProtobufPrivate5QtGui6QColoraSERKS1_@Qt_6 6.8.0
 _ZN17QtProtobufPrivate5QtGui6QImage13registerTypesEv@Qt_6 6.8.0
 _ZN17QtProtobufPrivate5QtGui6QImage16propertyOrderingE@Qt_6 6.8.0
 _ZN17QtProtobufPrivate5QtGui6QImage16staticMetaObjectE@Qt_6 6.8.0
 _ZN17QtProtobufPrivate5QtGui6QImage7setDataERK10QByteArray@Qt_6 6.8.0
 _ZN17QtProtobufPrivate5QtGui6QImage9setFormatERK7QString@Qt_6 6.8.0
 _ZN17QtProtobufPrivate5QtGui6QImageC1EOS1_@Qt_6 6.8.0
 _ZN17QtProtobufPrivate5QtGui6QImageC1ERKS1_@Qt_6 6.8.0
 _ZN17QtProtobufPrivate5QtGui6QImageC1Ev@Qt_6 6.8.0
 _ZN17QtProtobufPrivate5QtGui6QImageC2EOS1_@Qt_6 6.8.0
 _ZN17QtProtobufPrivate5QtGui6QImageC2ERKS1_@Qt_6 6.8.0
 _ZN17QtProtobufPrivate5QtGui6QImageC2Ev@Qt_6 6.8.0
 _ZN17QtProtobufPrivate5QtGui6QImageD1Ev@Qt_6 6.8.0
 _ZN17QtProtobufPrivate5QtGui6QImageD2Ev@Qt_6 6.8.0
 _ZN17QtProtobufPrivate5QtGui6QImageaSEOS1_@Qt_6 6.8.0
 _ZN17QtProtobufPrivate5QtGui6QImageaSERKS1_@Qt_6 6.8.0
 _ZN17QtProtobufPrivate5QtGui7QRgba6413registerTypesEv@Qt_6 6.8.0
 _ZN17QtProtobufPrivate5QtGui7QRgba6416propertyOrderingE@Qt_6 6.8.0
 _ZN17QtProtobufPrivate5QtGui7QRgba6416staticMetaObjectE@Qt_6 6.8.0
 (subst)_ZN17QtProtobufPrivate5QtGui7QRgba649setRgba64ERK{uint64_t}@Qt_6 6.8.0
 _ZN17QtProtobufPrivate5QtGui7QRgba64C1EOS1_@Qt_6 6.8.0
 _ZN17QtProtobufPrivate5QtGui7QRgba64C1ERKS1_@Qt_6 6.8.0
 _ZN17QtProtobufPrivate5QtGui7QRgba64C1Ev@Qt_6 6.8.0
 _ZN17QtProtobufPrivate5QtGui7QRgba64C2EOS1_@Qt_6 6.8.0
 _ZN17QtProtobufPrivate5QtGui7QRgba64C2ERKS1_@Qt_6 6.8.0
 _ZN17QtProtobufPrivate5QtGui7QRgba64C2Ev@Qt_6 6.8.0
 _ZN17QtProtobufPrivate5QtGui7QRgba64D1Ev@Qt_6 6.8.0
 _ZN17QtProtobufPrivate5QtGui7QRgba64D2Ev@Qt_6 6.8.0
 _ZN17QtProtobufPrivate5QtGui7QRgba64aSEOS1_@Qt_6 6.8.0
 _ZN17QtProtobufPrivate5QtGui7QRgba64aSERKS1_@Qt_6 6.8.0
 _ZN17QtProtobufPrivate5QtGui9QVector2D13registerTypesEv@Qt_6 6.8.0
 _ZN17QtProtobufPrivate5QtGui9QVector2D16propertyOrderingE@Qt_6 6.8.0
 _ZN17QtProtobufPrivate5QtGui9QVector2D16staticMetaObjectE@Qt_6 6.8.0
 _ZN17QtProtobufPrivate5QtGui9QVector2D7setXPosERKf@Qt_6 6.8.0
 _ZN17QtProtobufPrivate5QtGui9QVector2D7setYPosERKf@Qt_6 6.8.0
 _ZN17QtProtobufPrivate5QtGui9QVector2DC1EOS1_@Qt_6 6.8.0
 _ZN17QtProtobufPrivate5QtGui9QVector2DC1ERKS1_@Qt_6 6.8.0
 _ZN17QtProtobufPrivate5QtGui9QVector2DC1Ev@Qt_6 6.8.0
 _ZN17QtProtobufPrivate5QtGui9QVector2DC2EOS1_@Qt_6 6.8.0
 _ZN17QtProtobufPrivate5QtGui9QVector2DC2ERKS1_@Qt_6 6.8.0
 _ZN17QtProtobufPrivate5QtGui9QVector2DC2Ev@Qt_6 6.8.0
 _ZN17QtProtobufPrivate5QtGui9QVector2DD1Ev@Qt_6 6.8.0
 _ZN17QtProtobufPrivate5QtGui9QVector2DD2Ev@Qt_6 6.8.0
 _ZN17QtProtobufPrivate5QtGui9QVector2DaSEOS1_@Qt_6 6.8.0
 _ZN17QtProtobufPrivate5QtGui9QVector2DaSERKS1_@Qt_6 6.8.0
 _ZN17QtProtobufPrivate5QtGui9QVector3D13registerTypesEv@Qt_6 6.8.0
 _ZN17QtProtobufPrivate5QtGui9QVector3D16propertyOrderingE@Qt_6 6.8.0
 _ZN17QtProtobufPrivate5QtGui9QVector3D16staticMetaObjectE@Qt_6 6.8.0
 _ZN17QtProtobufPrivate5QtGui9QVector3D7setXPosERKf@Qt_6 6.8.0
 _ZN17QtProtobufPrivate5QtGui9QVector3D7setYPosERKf@Qt_6 6.8.0
 _ZN17QtProtobufPrivate5QtGui9QVector3D7setZPosERKf@Qt_6 6.8.0
 _ZN17QtProtobufPrivate5QtGui9QVector3DC1EOS1_@Qt_6 6.8.0
 _ZN17QtProtobufPrivate5QtGui9QVector3DC1ERKS1_@Qt_6 6.8.0
 _ZN17QtProtobufPrivate5QtGui9QVector3DC1Ev@Qt_6 6.8.0
 _ZN17QtProtobufPrivate5QtGui9QVector3DC2EOS1_@Qt_6 6.8.0
 _ZN17QtProtobufPrivate5QtGui9QVector3DC2ERKS1_@Qt_6 6.8.0
 _ZN17QtProtobufPrivate5QtGui9QVector3DC2Ev@Qt_6 6.8.0
 _ZN17QtProtobufPrivate5QtGui9QVector3DD1Ev@Qt_6 6.8.0
 _ZN17QtProtobufPrivate5QtGui9QVector3DD2Ev@Qt_6 6.8.0
 _ZN17QtProtobufPrivate5QtGui9QVector3DaSEOS1_@Qt_6 6.8.0
 _ZN17QtProtobufPrivate5QtGui9QVector3DaSERKS1_@Qt_6 6.8.0
 _ZN17QtProtobufPrivate5QtGui9QVector4D13registerTypesEv@Qt_6 6.8.0
 _ZN17QtProtobufPrivate5QtGui9QVector4D16propertyOrderingE@Qt_6 6.8.0
 _ZN17QtProtobufPrivate5QtGui9QVector4D16staticMetaObjectE@Qt_6 6.8.0
 _ZN17QtProtobufPrivate5QtGui9QVector4D7setWPosERKf@Qt_6 6.8.0
 _ZN17QtProtobufPrivate5QtGui9QVector4D7setXPosERKf@Qt_6 6.8.0
 _ZN17QtProtobufPrivate5QtGui9QVector4D7setYPosERKf@Qt_6 6.8.0
 _ZN17QtProtobufPrivate5QtGui9QVector4D7setZPosERKf@Qt_6 6.8.0
 _ZN17QtProtobufPrivate5QtGui9QVector4DC1EOS1_@Qt_6 6.8.0
 _ZN17QtProtobufPrivate5QtGui9QVector4DC1ERKS1_@Qt_6 6.8.0
 _ZN17QtProtobufPrivate5QtGui9QVector4DC1Ev@Qt_6 6.8.0
 _ZN17QtProtobufPrivate5QtGui9QVector4DC2EOS1_@Qt_6 6.8.0
 _ZN17QtProtobufPrivate5QtGui9QVector4DC2ERKS1_@Qt_6 6.8.0
 _ZN17QtProtobufPrivate5QtGui9QVector4DC2Ev@Qt_6 6.8.0
 _ZN17QtProtobufPrivate5QtGui9QVector4DD1Ev@Qt_6 6.8.0
 _ZN17QtProtobufPrivate5QtGui9QVector4DD2Ev@Qt_6 6.8.0
 _ZN17QtProtobufPrivate5QtGui9QVector4DaSEOS1_@Qt_6 6.8.0
 _ZN17QtProtobufPrivate5QtGui9QVector4DaSERKS1_@Qt_6 6.8.0
 _ZNK17QtProtobufPrivate5QtGui10QMatrix4x41mEv@Qt_6 6.8.0
 _ZNK17QtProtobufPrivate5QtGui10QMatrix4x4eqERKS1_@Qt_6 6.8.0
 _ZNK17QtProtobufPrivate5QtGui10QMatrix4x4neERKS1_@Qt_6 6.8.0
 _ZNK17QtProtobufPrivate5QtGui10QTransform1mEv@Qt_6 6.8.0
 _ZNK17QtProtobufPrivate5QtGui10QTransformeqERKS1_@Qt_6 6.8.0
 _ZNK17QtProtobufPrivate5QtGui10QTransformneERKS1_@Qt_6 6.8.0
 _ZNK17QtProtobufPrivate5QtGui11QQuaternion1xEv@Qt_6 6.8.0
 _ZNK17QtProtobufPrivate5QtGui11QQuaternion1yEv@Qt_6 6.8.0
 _ZNK17QtProtobufPrivate5QtGui11QQuaternion1zEv@Qt_6 6.8.0
 _ZNK17QtProtobufPrivate5QtGui11QQuaternion6scalarEv@Qt_6 6.8.0
 _ZNK17QtProtobufPrivate5QtGui11QQuaternioneqERKS1_@Qt_6 6.8.0
 _ZNK17QtProtobufPrivate5QtGui11QQuaternionneERKS1_@Qt_6 6.8.0
 _ZNK17QtProtobufPrivate5QtGui6QColor10colorFieldEv@Qt_6 6.8.0
 _ZNK17QtProtobufPrivate5QtGui6QColor4rgbaEv@Qt_6 6.8.0
 _ZNK17QtProtobufPrivate5QtGui6QColor6rgba64Ev@Qt_6 6.8.0
 _ZNK17QtProtobufPrivate5QtGui6QColor6rgba_pEv@Qt_6 6.8.0
 _ZNK17QtProtobufPrivate5QtGui6QColor7hasRgbaEv@Qt_6 6.8.0
 _ZNK17QtProtobufPrivate5QtGui6QColor8rgba64_pEv@Qt_6 6.8.0
 _ZNK17QtProtobufPrivate5QtGui6QColor9hasRgba64Ev@Qt_6 6.8.0
 _ZNK17QtProtobufPrivate5QtGui6QColoreqERKS1_@Qt_6 6.8.0
 _ZNK17QtProtobufPrivate5QtGui6QColorneERKS1_@Qt_6 6.8.0
 _ZNK17QtProtobufPrivate5QtGui6QImage4dataEv@Qt_6 6.8.0
 _ZNK17QtProtobufPrivate5QtGui6QImage6formatEv@Qt_6 6.8.0
 _ZNK17QtProtobufPrivate5QtGui6QImageeqERKS1_@Qt_6 6.8.0
 _ZNK17QtProtobufPrivate5QtGui6QImageneERKS1_@Qt_6 6.8.0
 _ZNK17QtProtobufPrivate5QtGui7QRgba646rgba64Ev@Qt_6 6.8.0
 _ZNK17QtProtobufPrivate5QtGui7QRgba64eqERKS1_@Qt_6 6.8.0
 _ZNK17QtProtobufPrivate5QtGui7QRgba64neERKS1_@Qt_6 6.8.0
 _ZNK17QtProtobufPrivate5QtGui9QVector2D4xPosEv@Qt_6 6.8.0
 _ZNK17QtProtobufPrivate5QtGui9QVector2D4yPosEv@Qt_6 6.8.0
 _ZNK17QtProtobufPrivate5QtGui9QVector2DeqERKS1_@Qt_6 6.8.0
 _ZNK17QtProtobufPrivate5QtGui9QVector2DneERKS1_@Qt_6 6.8.0
 _ZNK17QtProtobufPrivate5QtGui9QVector3D4xPosEv@Qt_6 6.8.0
 _ZNK17QtProtobufPrivate5QtGui9QVector3D4yPosEv@Qt_6 6.8.0
 _ZNK17QtProtobufPrivate5QtGui9QVector3D4zPosEv@Qt_6 6.8.0
 _ZNK17QtProtobufPrivate5QtGui9QVector3DeqERKS1_@Qt_6 6.8.0
 _ZNK17QtProtobufPrivate5QtGui9QVector3DneERKS1_@Qt_6 6.8.0
 _ZNK17QtProtobufPrivate5QtGui9QVector4D4wPosEv@Qt_6 6.8.0
 _ZNK17QtProtobufPrivate5QtGui9QVector4D4xPosEv@Qt_6 6.8.0
 _ZNK17QtProtobufPrivate5QtGui9QVector4D4yPosEv@Qt_6 6.8.0
 _ZNK17QtProtobufPrivate5QtGui9QVector4D4zPosEv@Qt_6 6.8.0
 _ZNK17QtProtobufPrivate5QtGui9QVector4DeqERKS1_@Qt_6 6.8.0
 _ZNK17QtProtobufPrivate5QtGui9QVector4DneERKS1_@Qt_6 6.8.0
 _ZTIZN9QMetaType17registerConverterI5QListIN17QtProtobufPrivate5QtGui10QMatrix4x4EE9QIterableI13QMetaSequenceEN9QtPrivate33QSequentialIterableConvertFunctorIS5_EEEEbT1_EUlPKvPvE_@Qt_6 6.8.0
 _ZTIZN9QMetaType17registerConverterI5QListIN17QtProtobufPrivate5QtGui10QTransformEE9QIterableI13QMetaSequenceEN9QtPrivate33QSequentialIterableConvertFunctorIS5_EEEEbT1_EUlPKvPvE_@Qt_6 6.8.0
 _ZTIZN9QMetaType17registerConverterI5QListIN17QtProtobufPrivate5QtGui11QQuaternionEE9QIterableI13QMetaSequenceEN9QtPrivate33QSequentialIterableConvertFunctorIS5_EEEEbT1_EUlPKvPvE_@Qt_6 6.8.0
 _ZTIZN9QMetaType17registerConverterI5QListIN17QtProtobufPrivate5QtGui6QColorEE9QIterableI13QMetaSequenceEN9QtPrivate33QSequentialIterableConvertFunctorIS5_EEEEbT1_EUlPKvPvE_@Qt_6 6.8.0
 _ZTIZN9QMetaType17registerConverterI5QListIN17QtProtobufPrivate5QtGui6QImageEE9QIterableI13QMetaSequenceEN9QtPrivate33QSequentialIterableConvertFunctorIS5_EEEEbT1_EUlPKvPvE_@Qt_6 6.8.0
 _ZTIZN9QMetaType17registerConverterI5QListIN17QtProtobufPrivate5QtGui7QRgba64EE9QIterableI13QMetaSequenceEN9QtPrivate33QSequentialIterableConvertFunctorIS5_EEEEbT1_EUlPKvPvE_@Qt_6 6.8.0
 _ZTIZN9QMetaType17registerConverterI5QListIN17QtProtobufPrivate5QtGui9QVector2DEE9QIterableI13QMetaSequenceEN9QtPrivate33QSequentialIterableConvertFunctorIS5_EEEEbT1_EUlPKvPvE_@Qt_6 6.8.0
 _ZTIZN9QMetaType17registerConverterI5QListIN17QtProtobufPrivate5QtGui9QVector3DEE9QIterableI13QMetaSequenceEN9QtPrivate33QSequentialIterableConvertFunctorIS5_EEEEbT1_EUlPKvPvE_@Qt_6 6.8.0
 _ZTIZN9QMetaType17registerConverterI5QListIN17QtProtobufPrivate5QtGui9QVector4DEE9QIterableI13QMetaSequenceEN9QtPrivate33QSequentialIterableConvertFunctorIS5_EEEEbT1_EUlPKvPvE_@Qt_6 6.8.0
 _ZTIZN9QMetaType17registerConverterI5QListIdE9QIterableI13QMetaSequenceEN9QtPrivate33QSequentialIterableConvertFunctorIS2_EEEEbT1_EUlPKvPvE_@Qt_6 6.8.0
 _ZTIZN9QMetaType17registerConverterI5QListIfE9QIterableI13QMetaSequenceEN9QtPrivate33QSequentialIterableConvertFunctorIS2_EEEEbT1_EUlPKvPvE_@Qt_6 6.8.0
 _ZTIZN9QMetaType19registerMutableViewI5QListIN17QtProtobufPrivate5QtGui10QMatrix4x4EE9QIterableI13QMetaSequenceEN9QtPrivate37QSequentialIterableMutableViewFunctorIS5_EEEEbT1_EUlPvSD_E_@Qt_6 6.8.0
 _ZTIZN9QMetaType19registerMutableViewI5QListIN17QtProtobufPrivate5QtGui10QTransformEE9QIterableI13QMetaSequenceEN9QtPrivate37QSequentialIterableMutableViewFunctorIS5_EEEEbT1_EUlPvSD_E_@Qt_6 6.8.0
 _ZTIZN9QMetaType19registerMutableViewI5QListIN17QtProtobufPrivate5QtGui11QQuaternionEE9QIterableI13QMetaSequenceEN9QtPrivate37QSequentialIterableMutableViewFunctorIS5_EEEEbT1_EUlPvSD_E_@Qt_6 6.8.0
 _ZTIZN9QMetaType19registerMutableViewI5QListIN17QtProtobufPrivate5QtGui6QColorEE9QIterableI13QMetaSequenceEN9QtPrivate37QSequentialIterableMutableViewFunctorIS5_EEEEbT1_EUlPvSD_E_@Qt_6 6.8.0
 _ZTIZN9QMetaType19registerMutableViewI5QListIN17QtProtobufPrivate5QtGui6QImageEE9QIterableI13QMetaSequenceEN9QtPrivate37QSequentialIterableMutableViewFunctorIS5_EEEEbT1_EUlPvSD_E_@Qt_6 6.8.0
 _ZTIZN9QMetaType19registerMutableViewI5QListIN17QtProtobufPrivate5QtGui7QRgba64EE9QIterableI13QMetaSequenceEN9QtPrivate37QSequentialIterableMutableViewFunctorIS5_EEEEbT1_EUlPvSD_E_@Qt_6 6.8.0
 _ZTIZN9QMetaType19registerMutableViewI5QListIN17QtProtobufPrivate5QtGui9QVector2DEE9QIterableI13QMetaSequenceEN9QtPrivate37QSequentialIterableMutableViewFunctorIS5_EEEEbT1_EUlPvSD_E_@Qt_6 6.8.0
 _ZTIZN9QMetaType19registerMutableViewI5QListIN17QtProtobufPrivate5QtGui9QVector3DEE9QIterableI13QMetaSequenceEN9QtPrivate37QSequentialIterableMutableViewFunctorIS5_EEEEbT1_EUlPvSD_E_@Qt_6 6.8.0
 _ZTIZN9QMetaType19registerMutableViewI5QListIN17QtProtobufPrivate5QtGui9QVector4DEE9QIterableI13QMetaSequenceEN9QtPrivate37QSequentialIterableMutableViewFunctorIS5_EEEEbT1_EUlPvSD_E_@Qt_6 6.8.0
 _ZTIZN9QMetaType19registerMutableViewI5QListIdE9QIterableI13QMetaSequenceEN9QtPrivate37QSequentialIterableMutableViewFunctorIS2_EEEEbT1_EUlPvSA_E_@Qt_6 6.8.0
 _ZTIZN9QMetaType19registerMutableViewI5QListIfE9QIterableI13QMetaSequenceEN9QtPrivate37QSequentialIterableMutableViewFunctorIS2_EEEEbT1_EUlPvSA_E_@Qt_6 6.8.0
 _ZTSZN9QMetaType17registerConverterI5QListIN17QtProtobufPrivate5QtGui10QMatrix4x4EE9QIterableI13QMetaSequenceEN9QtPrivate33QSequentialIterableConvertFunctorIS5_EEEEbT1_EUlPKvPvE_@Qt_6 6.8.0
 _ZTSZN9QMetaType17registerConverterI5QListIN17QtProtobufPrivate5QtGui10QTransformEE9QIterableI13QMetaSequenceEN9QtPrivate33QSequentialIterableConvertFunctorIS5_EEEEbT1_EUlPKvPvE_@Qt_6 6.8.0
 _ZTSZN9QMetaType17registerConverterI5QListIN17QtProtobufPrivate5QtGui11QQuaternionEE9QIterableI13QMetaSequenceEN9QtPrivate33QSequentialIterableConvertFunctorIS5_EEEEbT1_EUlPKvPvE_@Qt_6 6.8.0
 _ZTSZN9QMetaType17registerConverterI5QListIN17QtProtobufPrivate5QtGui6QColorEE9QIterableI13QMetaSequenceEN9QtPrivate33QSequentialIterableConvertFunctorIS5_EEEEbT1_EUlPKvPvE_@Qt_6 6.8.0
 _ZTSZN9QMetaType17registerConverterI5QListIN17QtProtobufPrivate5QtGui6QImageEE9QIterableI13QMetaSequenceEN9QtPrivate33QSequentialIterableConvertFunctorIS5_EEEEbT1_EUlPKvPvE_@Qt_6 6.8.0
 _ZTSZN9QMetaType17registerConverterI5QListIN17QtProtobufPrivate5QtGui7QRgba64EE9QIterableI13QMetaSequenceEN9QtPrivate33QSequentialIterableConvertFunctorIS5_EEEEbT1_EUlPKvPvE_@Qt_6 6.8.0
 _ZTSZN9QMetaType17registerConverterI5QListIN17QtProtobufPrivate5QtGui9QVector2DEE9QIterableI13QMetaSequenceEN9QtPrivate33QSequentialIterableConvertFunctorIS5_EEEEbT1_EUlPKvPvE_@Qt_6 6.8.0
 _ZTSZN9QMetaType17registerConverterI5QListIN17QtProtobufPrivate5QtGui9QVector3DEE9QIterableI13QMetaSequenceEN9QtPrivate33QSequentialIterableConvertFunctorIS5_EEEEbT1_EUlPKvPvE_@Qt_6 6.8.0
 _ZTSZN9QMetaType17registerConverterI5QListIN17QtProtobufPrivate5QtGui9QVector4DEE9QIterableI13QMetaSequenceEN9QtPrivate33QSequentialIterableConvertFunctorIS5_EEEEbT1_EUlPKvPvE_@Qt_6 6.8.0
 _ZTSZN9QMetaType17registerConverterI5QListIdE9QIterableI13QMetaSequenceEN9QtPrivate33QSequentialIterableConvertFunctorIS2_EEEEbT1_EUlPKvPvE_@Qt_6 6.8.0
 _ZTSZN9QMetaType17registerConverterI5QListIfE9QIterableI13QMetaSequenceEN9QtPrivate33QSequentialIterableConvertFunctorIS2_EEEEbT1_EUlPKvPvE_@Qt_6 6.8.0
 _ZTSZN9QMetaType19registerMutableViewI5QListIN17QtProtobufPrivate5QtGui10QMatrix4x4EE9QIterableI13QMetaSequenceEN9QtPrivate37QSequentialIterableMutableViewFunctorIS5_EEEEbT1_EUlPvSD_E_@Qt_6 6.8.0
 _ZTSZN9QMetaType19registerMutableViewI5QListIN17QtProtobufPrivate5QtGui10QTransformEE9QIterableI13QMetaSequenceEN9QtPrivate37QSequentialIterableMutableViewFunctorIS5_EEEEbT1_EUlPvSD_E_@Qt_6 6.8.0
 _ZTSZN9QMetaType19registerMutableViewI5QListIN17QtProtobufPrivate5QtGui11QQuaternionEE9QIterableI13QMetaSequenceEN9QtPrivate37QSequentialIterableMutableViewFunctorIS5_EEEEbT1_EUlPvSD_E_@Qt_6 6.8.0
 _ZTSZN9QMetaType19registerMutableViewI5QListIN17QtProtobufPrivate5QtGui6QColorEE9QIterableI13QMetaSequenceEN9QtPrivate37QSequentialIterableMutableViewFunctorIS5_EEEEbT1_EUlPvSD_E_@Qt_6 6.8.0
 _ZTSZN9QMetaType19registerMutableViewI5QListIN17QtProtobufPrivate5QtGui6QImageEE9QIterableI13QMetaSequenceEN9QtPrivate37QSequentialIterableMutableViewFunctorIS5_EEEEbT1_EUlPvSD_E_@Qt_6 6.8.0
 _ZTSZN9QMetaType19registerMutableViewI5QListIN17QtProtobufPrivate5QtGui7QRgba64EE9QIterableI13QMetaSequenceEN9QtPrivate37QSequentialIterableMutableViewFunctorIS5_EEEEbT1_EUlPvSD_E_@Qt_6 6.8.0
 _ZTSZN9QMetaType19registerMutableViewI5QListIN17QtProtobufPrivate5QtGui9QVector2DEE9QIterableI13QMetaSequenceEN9QtPrivate37QSequentialIterableMutableViewFunctorIS5_EEEEbT1_EUlPvSD_E_@Qt_6 6.8.0
 _ZTSZN9QMetaType19registerMutableViewI5QListIN17QtProtobufPrivate5QtGui9QVector3DEE9QIterableI13QMetaSequenceEN9QtPrivate37QSequentialIterableMutableViewFunctorIS5_EEEEbT1_EUlPvSD_E_@Qt_6 6.8.0
 _ZTSZN9QMetaType19registerMutableViewI5QListIN17QtProtobufPrivate5QtGui9QVector4DEE9QIterableI13QMetaSequenceEN9QtPrivate37QSequentialIterableMutableViewFunctorIS5_EEEEbT1_EUlPvSD_E_@Qt_6 6.8.0
 _ZTSZN9QMetaType19registerMutableViewI5QListIdE9QIterableI13QMetaSequenceEN9QtPrivate37QSequentialIterableMutableViewFunctorIS2_EEEEbT1_EUlPvSA_E_@Qt_6 6.8.0
 _ZTSZN9QMetaType19registerMutableViewI5QListIfE9QIterableI13QMetaSequenceEN9QtPrivate37QSequentialIterableMutableViewFunctorIS2_EEEEbT1_EUlPvSA_E_@Qt_6 6.8.0
 (optional=templinst)_ZZN9QMetaType21registerConverterImplI5QListIN17QtProtobufPrivate5QtGui10QMatrix4x4EE9QIterableI13QMetaSequenceEEEbSt8functionIFbPKvPvEES_S_E10unregister@Qt_6 6.8.0
 (optional=templinst)_ZZN9QMetaType21registerConverterImplI5QListIN17QtProtobufPrivate5QtGui10QTransformEE9QIterableI13QMetaSequenceEEEbSt8functionIFbPKvPvEES_S_E10unregister@Qt_6 6.8.0
 (optional=templinst)_ZZN9QMetaType21registerConverterImplI5QListIN17QtProtobufPrivate5QtGui11QQuaternionEE9QIterableI13QMetaSequenceEEEbSt8functionIFbPKvPvEES_S_E10unregister@Qt_6 6.8.0
 (optional=templinst)_ZZN9QMetaType21registerConverterImplI5QListIN17QtProtobufPrivate5QtGui6QColorEE9QIterableI13QMetaSequenceEEEbSt8functionIFbPKvPvEES_S_E10unregister@Qt_6 6.8.0
 (optional=templinst)_ZZN9QMetaType21registerConverterImplI5QListIN17QtProtobufPrivate5QtGui6QImageEE9QIterableI13QMetaSequenceEEEbSt8functionIFbPKvPvEES_S_E10unregister@Qt_6 6.8.0
 (optional=templinst)_ZZN9QMetaType21registerConverterImplI5QListIN17QtProtobufPrivate5QtGui7QRgba64EE9QIterableI13QMetaSequenceEEEbSt8functionIFbPKvPvEES_S_E10unregister@Qt_6 6.8.0
 (optional=templinst)_ZZN9QMetaType21registerConverterImplI5QListIN17QtProtobufPrivate5QtGui9QVector2DEE9QIterableI13QMetaSequenceEEEbSt8functionIFbPKvPvEES_S_E10unregister@Qt_6 6.8.0
 (optional=templinst)_ZZN9QMetaType21registerConverterImplI5QListIN17QtProtobufPrivate5QtGui9QVector3DEE9QIterableI13QMetaSequenceEEEbSt8functionIFbPKvPvEES_S_E10unregister@Qt_6 6.8.0
 (optional=templinst)_ZZN9QMetaType21registerConverterImplI5QListIN17QtProtobufPrivate5QtGui9QVector4DEE9QIterableI13QMetaSequenceEEEbSt8functionIFbPKvPvEES_S_E10unregister@Qt_6 6.8.0
 (optional=templinst)_ZZN9QMetaType21registerConverterImplI5QListIdE9QIterableI13QMetaSequenceEEEbSt8functionIFbPKvPvEES_S_E10unregister@Qt_6 6.8.0
 (optional=templinst)_ZZN9QMetaType21registerConverterImplI5QListIfE9QIterableI13QMetaSequenceEEEbSt8functionIFbPKvPvEES_S_E10unregister@Qt_6 6.8.0
 (optional=templinst)_ZZN9QMetaType23registerMutableViewImplI5QListIN17QtProtobufPrivate5QtGui10QMatrix4x4EE9QIterableI13QMetaSequenceEEEbSt8functionIFbPvSA_EES_S_E10unregister@Qt_6 6.8.0
 (optional=templinst)_ZZN9QMetaType23registerMutableViewImplI5QListIN17QtProtobufPrivate5QtGui10QTransformEE9QIterableI13QMetaSequenceEEEbSt8functionIFbPvSA_EES_S_E10unregister@Qt_6 6.8.0
 (optional=templinst)_ZZN9QMetaType23registerMutableViewImplI5QListIN17QtProtobufPrivate5QtGui11QQuaternionEE9QIterableI13QMetaSequenceEEEbSt8functionIFbPvSA_EES_S_E10unregister@Qt_6 6.8.0
 (optional=templinst)_ZZN9QMetaType23registerMutableViewImplI5QListIN17QtProtobufPrivate5QtGui6QColorEE9QIterableI13QMetaSequenceEEEbSt8functionIFbPvSA_EES_S_E10unregister@Qt_6 6.8.0
 (optional=templinst)_ZZN9QMetaType23registerMutableViewImplI5QListIN17QtProtobufPrivate5QtGui6QImageEE9QIterableI13QMetaSequenceEEEbSt8functionIFbPvSA_EES_S_E10unregister@Qt_6 6.8.0
 (optional=templinst)_ZZN9QMetaType23registerMutableViewImplI5QListIN17QtProtobufPrivate5QtGui7QRgba64EE9QIterableI13QMetaSequenceEEEbSt8functionIFbPvSA_EES_S_E10unregister@Qt_6 6.8.0
 (optional=templinst)_ZZN9QMetaType23registerMutableViewImplI5QListIN17QtProtobufPrivate5QtGui9QVector2DEE9QIterableI13QMetaSequenceEEEbSt8functionIFbPvSA_EES_S_E10unregister@Qt_6 6.8.0
 (optional=templinst)_ZZN9QMetaType23registerMutableViewImplI5QListIN17QtProtobufPrivate5QtGui9QVector3DEE9QIterableI13QMetaSequenceEEEbSt8functionIFbPvSA_EES_S_E10unregister@Qt_6 6.8.0
 (optional=templinst)_ZZN9QMetaType23registerMutableViewImplI5QListIN17QtProtobufPrivate5QtGui9QVector4DEE9QIterableI13QMetaSequenceEEEbSt8functionIFbPvSA_EES_S_E10unregister@Qt_6 6.8.0
 (optional=templinst)_ZZN9QMetaType23registerMutableViewImplI5QListIdE9QIterableI13QMetaSequenceEEEbSt8functionIFbPvS7_EES_S_E10unregister@Qt_6 6.8.0
 (optional=templinst)_ZZN9QMetaType23registerMutableViewImplI5QListIfE9QIterableI13QMetaSequenceEEEbSt8functionIFbPvS7_EES_S_E10unregister@Qt_6 6.8.0
